
Optional file libmchp_peripheral.a not found
Archive member included because of file (symbol)

c:/program files (x86)/microchip/xc32/v1.42/bin/bin/../../lib/gcc/pic32mx/4.8.3/fpu64\libgcc.a(_udivdi3.o)
                              build/udp_pic32mz_ef_sk/production/_ext/2110151058/sys_tmr.o (__udivdi3)
c:/program files (x86)/microchip/xc32/v1.42/bin/bin/../../lib/gcc/pic32mx/4.8.3/../../../../pic32mx/lib/fpu64\libpic32.a(memcmp.o)
                              build/udp_pic32mz_ef_sk/production/_ext/1697634946/drv_ethmac.o (memcmp)
c:/program files (x86)/microchip/xc32/v1.42/bin/bin/../../lib/gcc/pic32mx/4.8.3/../../../../pic32mx/lib/fpu64\libpic32.a(memcpy.o)
                              build/udp_pic32mz_ef_sk/production/_ext/686445382/nvm.o (memcpy)
c:/program files (x86)/microchip/xc32/v1.42/bin/bin/../../lib/gcc/pic32mx/4.8.3/../../../../pic32mx/lib/fpu64\libpic32.a(memset.o)
                              build/udp_pic32mz_ef_sk/production/_ext/1697634946/drv_ethmac.o (memset)
c:/program files (x86)/microchip/xc32/v1.42/bin/bin/../../lib/gcc/pic32mx/4.8.3/../../../../pic32mx/lib/fpu64\libpic32.a(strcmp.o)
                              build/udp_pic32mz_ef_sk/production/_ext/1164207549/tcpip_helpers.o (strcmp)
c:/program files (x86)/microchip/xc32/v1.42/bin/bin/../../lib/gcc/pic32mx/4.8.3/../../../../pic32mx/lib/fpu64\libpic32.a(strcpy.o)
                              build/udp_pic32mz_ef_sk/production/_ext/1164207549/tcpip_helpers.o (strcpy)
c:/program files (x86)/microchip/xc32/v1.42/bin/bin/../../lib/gcc/pic32mx/4.8.3/../../../../pic32mx/lib/fpu64\libpic32.a(strlen.o)
                              build/udp_pic32mz_ef_sk/production/_ext/1886247299/helpers.o (strlen)
c:/program files (x86)/microchip/xc32/v1.42/bin/bin/../../lib/gcc/pic32mx/4.8.3/../../../../pic32mx/lib/fpu64\libpic32.a(default-bootstrap-exception-handler.o)
                              c:/program files (x86)/microchip/xc32/v1.42/bin/bin/../../lib/gcc/pic32mx/4.8.3/../../../../pic32mx/lib/./proc/32MZ2048EFH144/crt0_mips32r2.o (_bootstrap_exception_handler)
c:/program files (x86)/microchip/xc32/v1.42/bin/bin/../../lib/gcc/pic32mx/4.8.3/../../../../pic32mx/lib/fpu64\libpic32.a(default-on-reset.o)
                              c:/program files (x86)/microchip/xc32/v1.42/bin/bin/../../lib/gcc/pic32mx/4.8.3/../../../../pic32mx/lib/./proc/32MZ2048EFH144/crt0_mips32r2.o (_on_reset)
c:/program files (x86)/microchip/xc32/v1.42/bin/bin/../../lib/gcc/pic32mx/4.8.3/../../../../pic32mx/lib/fpu64\libpic32.a(default-on-bootstrap.o)
                              c:/program files (x86)/microchip/xc32/v1.42/bin/bin/../../lib/gcc/pic32mx/4.8.3/../../../../pic32mx/lib/./proc/32MZ2048EFH144/crt0_mips32r2.o (_on_bootstrap)
c:/program files (x86)/microchip/xc32/v1.42/bin/bin/../../lib/gcc/pic32mx/4.8.3/../../../../pic32mx/lib/fpu64\libpic32.a(default-nmi-handler.o)
                              c:/program files (x86)/microchip/xc32/v1.42/bin/bin/../../lib/gcc/pic32mx/4.8.3/../../../../pic32mx/lib/./proc/32MZ2048EFH144/crt0_mips32r2.o (_nmi_handler)
c:/program files (x86)/microchip/xc32/v1.42/bin/bin/../../lib/gcc/pic32mx/4.8.3/../../../../pic32mx/lib/fpu64\libpic32.a(pic32_init_cache.o)
                              c:/program files (x86)/microchip/xc32/v1.42/bin/bin/../../lib/gcc/pic32mx/4.8.3/../../../../pic32mx/lib/./proc/32MZ2048EFH144/crt0_mips32r2.o (__pic32_init_cache)
c:/program files (x86)/microchip/xc32/v1.42/bin/bin/../../lib/gcc/pic32mx/4.8.3/../../../../pic32mx/lib/fpu64\libpic32.a(pic32_init_tlb_ebi_sqi.o)
                              c:/program files (x86)/microchip/xc32/v1.42/bin/bin/../../lib/gcc/pic32mx/4.8.3/../../../../pic32mx/lib/./proc/32MZ2048EFH144/crt0_mips32r2.o (__pic32_tlb_init_ebi_sqi)
c:/program files (x86)/microchip/xc32/v1.42/bin/bin/../../lib/gcc/pic32mx/4.8.3/../../../../pic32mx/lib/fpu64\libpic32.a(general-exception.o)
                              c:/program files (x86)/microchip/xc32/v1.42/bin/bin/../../lib/gcc/pic32mx/4.8.3/../../../../pic32mx/lib/./proc/32MZ2048EFH144/crt0_mips32r2.o (_general_exception_context)
c:/program files (x86)/microchip/xc32/v1.42/bin/bin/../../lib/gcc/pic32mx/4.8.3/../../../../pic32mx/lib/fpu64\libpic32.a(cache-err-exception.o)
                              c:/program files (x86)/microchip/xc32/v1.42/bin/bin/../../lib/gcc/pic32mx/4.8.3/../../../../pic32mx/lib/./proc/32MZ2048EFH144/crt0_mips32r2.o (_cache_err_exception_context)
c:/program files (x86)/microchip/xc32/v1.42/bin/bin/../../lib/gcc/pic32mx/4.8.3/../../../../pic32mx/lib/fpu64\libpic32.a(simple-tlb-refill-exception.o)
                              c:/program files (x86)/microchip/xc32/v1.42/bin/bin/../../lib/gcc/pic32mx/4.8.3/../../../../pic32mx/lib/./proc/32MZ2048EFH144/crt0_mips32r2.o (_simple_tlb_refill_exception_context)
c:/program files (x86)/microchip/xc32/v1.42/bin/bin/../../lib/gcc/pic32mx/4.8.3/../../../../pic32mx/lib/fpu64\libpic32.a(defaultinterrupt.o)
                              c:/program files (x86)/microchip/xc32/v1.42/bin/bin/../../lib/gcc/pic32mx/4.8.3/../../../../pic32mx/lib/./proc/32MZ2048EFH144\default_isr_vectors.o (_DefaultInterrupt)
c:/program files (x86)/microchip/xc32/v1.42/bin/bin/../../lib/gcc/pic32mx/4.8.3/../../../../pic32mx/lib/fpu64\libpic32.a(default-cache-err-exception-handler.o)
                              c:/program files (x86)/microchip/xc32/v1.42/bin/bin/../../lib/gcc/pic32mx/4.8.3/../../../../pic32mx/lib/fpu64\libpic32.a(cache-err-exception.o) (_cache_err_exception_handler)
c:/program files (x86)/microchip/xc32/v1.42/bin/bin/../../lib/gcc/pic32mx/4.8.3/../../../../pic32mx/lib/fpu64\libpic32.a(default-simple-tlb-refill-exception-handler.o)
                              c:/program files (x86)/microchip/xc32/v1.42/bin/bin/../../lib/gcc/pic32mx/4.8.3/../../../../pic32mx/lib/fpu64\libpic32.a(simple-tlb-refill-exception.o) (_simple_tlb_refill_exception_handler)
c:/program files (x86)/microchip/xc32/v1.42/bin/bin/../../lib/gcc/pic32mx/4.8.3/../../../../pic32mx/lib/fpu64\libc.a(atoi.o)
                              build/udp_pic32mz_ef_sk/production/_ext/615392287/datastream_udp.o (atoi)
c:/program files (x86)/microchip/xc32/v1.42/bin/bin/../../lib/gcc/pic32mx/4.8.3/../../../../pic32mx/lib/fpu64\libc.a(calloc.o)
                              build/udp_pic32mz_ef_sk/production/_ext/2145045400/system_init.o (calloc)
c:/program files (x86)/microchip/xc32/v1.42/bin/bin/../../lib/gcc/pic32mx/4.8.3/../../../../pic32mx/lib/fpu64\libc.a(ctype.o)
                              build/udp_pic32mz_ef_sk/production/_ext/1164207549/tcpip_helpers.o (_ctype)
c:/program files (x86)/microchip/xc32/v1.42/bin/bin/../../lib/gcc/pic32mx/4.8.3/../../../../pic32mx/lib/fpu64\libc.a(ctypef.o)
                              build/udp_pic32mz_ef_sk/production/_ext/1164207549/tcpip_helpers.o (toupper)
c:/program files (x86)/microchip/xc32/v1.42/bin/bin/../../lib/gcc/pic32mx/4.8.3/../../../../pic32mx/lib/fpu64\libc.a(malloc.o)
                              build/udp_pic32mz_ef_sk/production/_ext/2145045400/system_init.o (malloc)
c:/program files (x86)/microchip/xc32/v1.42/bin/bin/../../lib/gcc/pic32mx/4.8.3/../../../../pic32mx/lib/fpu64\libc.a(rand.o)
                              build/udp_pic32mz_ef_sk/production/_ext/470001640/sys_random.o (srand)
c:/program files (x86)/microchip/xc32/v1.42/bin/bin/../../lib/gcc/pic32mx/4.8.3/../../../../pic32mx/lib/fpu64\libc.a(strncpy.o)
                              build/udp_pic32mz_ef_sk/production/_ext/1697634946/drv_ethmac.o (strncpy)
c:/program files (x86)/microchip/xc32/v1.42/bin/bin/../../lib/gcc/pic32mx/4.8.3/../../../../pic32mx/lib/fpu64\libc.a(strtol.o)
                              build/udp_pic32mz_ef_sk/production/_ext/1164207549/tcpip_helpers.o (strtol)
c:/program files (x86)/microchip/xc32/v1.42/bin/bin/../../lib/gcc/pic32mx/4.8.3/../../../../pic32mx/lib/fpu64\libc.a(snprintf_cdnopsuxX.eo)
                              build/udp_pic32mz_ef_sk/production/_ext/1164207549/tcpip_manager.o (_snprintf_cdnopsuxX)
c:/program files (x86)/microchip/xc32/v1.42/bin/bin/../../lib/gcc/pic32mx/4.8.3/../../../../pic32mx/lib/fpu64\libc.a(sprintf_cdnopuxX.eo)
                              build/udp_pic32mz_ef_sk/production/_ext/1164207549/tcpip_helpers.o (_sprintf_cdnopuxX)
c:/program files (x86)/microchip/xc32/v1.42/bin/bin/../../lib/gcc/pic32mx/4.8.3/../../../../pic32mx/lib/fpu64\libc.a(vsnprintf_cdnopsuxX.eo)
                              c:/program files (x86)/microchip/xc32/v1.42/bin/bin/../../lib/gcc/pic32mx/4.8.3/../../../../pic32mx/lib/fpu64\libc.a(snprintf_cdnopsuxX.eo) (_vsnprintf_cdnopsuxX)
c:/program files (x86)/microchip/xc32/v1.42/bin/bin/../../lib/gcc/pic32mx/4.8.3/../../../../pic32mx/lib/fpu64\libc.a(errno.o)
                              c:/program files (x86)/microchip/xc32/v1.42/bin/bin/../../lib/gcc/pic32mx/4.8.3/../../../../pic32mx/lib/fpu64\libc.a(strtol.o) (errno)
c:/program files (x86)/microchip/xc32/v1.42/bin/bin/../../lib/gcc/pic32mx/4.8.3/../../../../pic32mx/lib/fpu64\libc.a(doprnt_cdnopsuxX.eo)
                              c:/program files (x86)/microchip/xc32/v1.42/bin/bin/../../lib/gcc/pic32mx/4.8.3/../../../../pic32mx/lib/fpu64\libc.a(vsnprintf_cdnopsuxX.eo) (_vfprintf_cdnopsuxX)
c:/program files (x86)/microchip/xc32/v1.42/bin/bin/../../lib/gcc/pic32mx/4.8.3/../../../../pic32mx/lib/fpu64\libc.a(doprnt_cdnopuxX.eo)
                              c:/program files (x86)/microchip/xc32/v1.42/bin/bin/../../lib/gcc/pic32mx/4.8.3/../../../../pic32mx/lib/fpu64\libc.a(sprintf_cdnopuxX.eo) (_vfprintf_cdnopuxX)
c:/program files (x86)/microchip/xc32/v1.42/bin/bin/../../lib/gcc/pic32mx/4.8.3/../../../../pic32mx/lib/fpu64\libc.a(_fputc_simple.o)
                              c:/program files (x86)/microchip/xc32/v1.42/bin/bin/../../lib/gcc/pic32mx/4.8.3/../../../../pic32mx/lib/fpu64\libc.a(doprnt_cdnopsuxX.eo) (fputc)
c:/program files (x86)/microchip/xc32/v1.42/bin/bin/../../lib/gcc/pic32mx/4.8.3/../../../../pic32mx/lib/fpu64\libc.a(_iob.o)
                              c:/program files (x86)/microchip/xc32/v1.42/bin/bin/../../lib/gcc/pic32mx/4.8.3/../../../../pic32mx/lib/fpu64\libc.a(_fputc_simple.o) (_outdone)
c:/program files (x86)/microchip/xc32/v1.42/bin/bin/../../lib/gcc/pic32mx/4.8.3/../../../../pic32mx/lib/fpu64\libc.a(_flsbuf_simple.o)
                              c:/program files (x86)/microchip/xc32/v1.42/bin/bin/../../lib/gcc/pic32mx/4.8.3/../../../../pic32mx/lib/fpu64\libc.a(_fputc_simple.o) (_flsbuf)
c:/program files (x86)/microchip/xc32/v1.42/bin/bin/../../lib/gcc/pic32mx/4.8.3/../../../../pic32mx/lib/fpu64\libpic32.a(sbrk.o)
                              c:/program files (x86)/microchip/xc32/v1.42/bin/bin/../../lib/gcc/pic32mx/4.8.3/../../../../pic32mx/lib/fpu64\libc.a(malloc.o) (sbrk)
c:/program files (x86)/microchip/xc32/v1.42/bin/bin/../../lib/gcc/pic32mx/4.8.3/../../../../pic32mx/lib/fpu64\libpic32.a(write.o)
                              c:/program files (x86)/microchip/xc32/v1.42/bin/bin/../../lib/gcc/pic32mx/4.8.3/../../../../pic32mx/lib/fpu64\libc.a(_fputc_simple.o) (write)
c:/program files (x86)/microchip/xc32/v1.42/bin/bin/../../lib/gcc/pic32mx/4.8.3/../../../../pic32mx/lib/fpu64\libpic32.a(_mon_putc.o)
                              c:/program files (x86)/microchip/xc32/v1.42/bin/bin/../../lib/gcc/pic32mx/4.8.3/../../../../pic32mx/lib/fpu64\libpic32.a(write.o) (_mon_putc)
c:/program files (x86)/microchip/xc32/v1.42/bin/bin/../../lib/gcc/pic32mx/4.8.3/../../../../pic32mx/lib/fpu64\libpic32.a(xc32_uart.o)
                              c:/program files (x86)/microchip/xc32/v1.42/bin/bin/../../lib/gcc/pic32mx/4.8.3/../../../../pic32mx/lib/fpu64\libpic32.a(_mon_putc.o) (__XC_UART)
c:/program files (x86)/microchip/xc32/v1.42/bin/bin/../../lib/gcc/pic32mx/4.8.3/fpu64\libgcc.a(_umoddi3.o)
                              c:/program files (x86)/microchip/xc32/v1.42/bin/bin/../../lib/gcc/pic32mx/4.8.3/../../../../pic32mx/lib/fpu64\libc.a(doprnt_cdnopsuxX.eo) (__umoddi3)

Allocating common symbols
Common symbol       size              file

_context            0x4               build/udp_pic32mz_ef_sk/production/_ext/1991045727/sys_clk_pic32mz.o
udpsocket           0x2               build/udp_pic32mz_ef_sk/production/_ext/615392287/datastream_udp.o
_txMaxSize          0x4               build/udp_pic32mz_ef_sk/production/_ext/1991045727/sys_clk_pic32mz.o
_rxCurSize          0x4               build/udp_pic32mz_ef_sk/production/_ext/1991045727/sys_clk_pic32mz.o
sysObj              0xc               build/udp_pic32mz_ef_sk/production/_ext/2145045400/system_init.o
_Message_Buffer     0xf               build/udp_pic32mz_ef_sk/production/_ext/615392287/datastream_udp.o
_bufferHandle       0x4               build/udp_pic32mz_ef_sk/production/_ext/1991045727/sys_clk_pic32mz.o
_txCurPos           0x4               build/udp_pic32mz_ef_sk/production/_ext/1991045727/sys_clk_pic32mz.o
handler             0x4               build/udp_pic32mz_ef_sk/production/_ext/1991045727/sys_clk_pic32mz.o
connected           0x1               build/udp_pic32mz_ef_sk/production/_ext/615392287/datastream_udp.o
_txBuffer           0x4               build/udp_pic32mz_ef_sk/production/_ext/1991045727/sys_clk_pic32mz.o
sysDevconObj        0x8               build/udp_pic32mz_ef_sk/production/_ext/2092611130/sys_devcon.o
sysRandCtx          0x108             build/udp_pic32mz_ef_sk/production/_ext/470001640/sys_random.o
_rxBuffer           0x4               build/udp_pic32mz_ef_sk/production/_ext/1991045727/sys_clk_pic32mz.o
_Port_Buffer        0x6               build/udp_pic32mz_ef_sk/production/_ext/615392287/datastream_udp.o
_rxMaxSize          0x4               build/udp_pic32mz_ef_sk/production/_ext/1991045727/sys_clk_pic32mz.o
currDir             0x4               build/udp_pic32mz_ef_sk/production/_ext/1991045727/sys_clk_pic32mz.o
datastreamModule    0x4               build/udp_pic32mz_ef_sk/production/_ext/615392287/datastream.o

Microchip PIC32 Memory-Usage Report

kseg0 Program-Memory Usage
section                    address  length [bytes]      (dec)  Description
-------                 ----------  -------------------------  -----------
.simple_tlb_refill_excp 0x9fc01000           0x10          16   
.text.DRV_ETHMAC_LibMAC 0x9fc01010           0xf0         240   
.cache_err_excpt        0x9fc01100           0x10          16   
.text._EnetPoolFreeDcpt 0x9fc01110           0x70         112   
.app_excpt              0x9fc01180           0x10          16  General-Exception 
.text.DRV_ETHPHY_SMISca 0x9fc01190           0x70         112   
.vectors                0x9fc01200           0x58          88   
.text._TCPIPStackAnyNet 0x9fc01258           0x78         120   
.text.TCPIP_PKT_Initial 0x9fc012d0           0x78         120   
.text.DRV_ETHMAC_PIC32M 0x9fc01348           0x74         116   
.text._DRV_ETHPHY_NegCo 0x9fc013bc           0x74         116   
.text.TCPIP_Helper_Stri 0x9fc01430           0x74         116   
.text._TCPIPStackSignal 0x9fc014a4           0x74         116   
.text._TCPIP_PKT_Socket 0x9fc01518           0x74         116   
.text.strncpy           0x9fc0158c           0x74         116   
.text._DRV_ETHPHY_LinkS 0x9fc01600           0x70         112   
.text._UDPFreeTxResourc 0x9fc01670           0x70         112   
.text._UDPClose         0x9fc016e0           0x70         112   
.text._TCPIP_HEAP_Delet 0x9fc01750           0x70         112   
.text._ARPSetEntry      0x9fc017c0           0x70         112   
.text._MacRxFreeCallbac 0x9fc01830           0x6c         108   
.text._DRV_TMR_Resume   0x9fc0189c           0x68         104   
.text.SYS_RANDOM_Initia 0x9fc01904           0x68         104   
.text.TCPIP_ARP_HashEnt 0x9fc0196c           0x68         104   
.text.TCPIP_STACK_IsBca 0x9fc019d4           0x68         104   
.text._TCPIPStackModule 0x9fc01a3c           0x68         104   
.rodata                 0x9fc01aa4           0x68         104  Read-only const 
.text._MacTxFreeCallbac 0x9fc01b0c           0x64         100   
.text.DRV_TMR_Start     0x9fc01b70           0x64         100   
.text.TCPIP_IPV4_Cleanu 0x9fc01bd4           0x64         100   
.text.TCPIP_UDP_GetIsRe 0x9fc01c38           0x64         100   
.text.TCPIP_UDP_IsConne 0x9fc01c9c           0x60          96   
.text.TCPIP_OAHASH_Entr 0x9fc01cfc           0x60          96   
.rodata                 0x9fc01d5c           0x60          96  Read-only const 
.text._MacTxDiscardQueu 0x9fc01dbc           0x5c          92   
.text.DRV_ETHPHY_LinkSt 0x9fc01e18           0x5c          92   
.text.DRV_ETHPHY_Negoti 0x9fc01e74           0x5c          92   
.text._DRV_ETHPHY_Clien 0x9fc01ed0           0x5c          92   
.text._DRV_ETHPHY_Clien 0x9fc01f2c           0x5c          92   
.text._DRV_ETHPHY_Clien 0x9fc01f88           0x5c          92   
.text._DRV_ETHPHY_Clien 0x9fc01fe4           0x5c          92   
.text._DRV_ETHPHY_Clien 0x9fc02040           0x5c          92   
.text._DRV_ETHPHY_Clien 0x9fc0209c           0x5c          92   
.text._DRV_ETHPHY_Setup 0x9fc020f8           0x5c          92   
.text.DRV_TMR_Open      0x9fc02154           0x5c          92   
.text.DRV_TMR_AlarmEnab 0x9fc021b0           0x5c          92   
.text._TCPIP_HEAP_Buffe 0x9fc0220c           0x5c          92   
.text.fnv_32_hash       0x9fc02268           0x5c          92   
.text.TCPIP_Helper_Prot 0x9fc022c4           0x5c          92   
.text._vsnprintf_cdnops 0x9fc02320           0x5c          92   
.text.SYS_DEVCON_System 0x9fc0237c           0x58          88   
.text.TCPIP_STACK_Init  0x9fc023d4           0x58          88   
.text.DRV_ETHMAC_PIC32M 0x9fc0242c           0x58          88   
.text._DRV_ETHPHY_Clien 0x9fc02484           0x58          88   
.text.TCPIP_IPV4_CheckP 0x9fc024dc           0x58          88   
.text.TCPIP_STACK_NetBy 0x9fc02534           0x58          88   
.text.TCPIP_Notificatio 0x9fc0258c           0x58          88   
.text.main_entry        0x9fc025e4           0x54          84   
.text.APP_ForceBootload 0x9fc02638           0x54          84   
.text.DRV_ETHMAC_PIC32M 0x9fc0268c           0x54          84   
.text._DRV_ETHMAC_LinkS 0x9fc026e0           0x54          84   
.text._EnetDescriptorsC 0x9fc02734           0x54          84   
.text.SYS_INT_SourceDis 0x9fc02788           0x54          84   
.text.SYS_CLK_Periphera 0x9fc027dc           0x50          80   
.text.APP_NVMQuadWordWr 0x9fc0282c           0x50          80   
.text._XtlEventsTcp2Eth 0x9fc0287c           0x50          80   
.text.DRV_ETHPHY_SMISca 0x9fc028cc           0x50          80   
.text.DRV_ETHPHY_HWConf 0x9fc0291c           0x50          80   
.text._DRV_ETHPHY_NegRe 0x9fc0296c           0x50          80   
.text._DRV_ETHPHY_NegRe 0x9fc029bc           0x50          80   
.text._DRV_TMR_Suspend  0x9fc02a0c           0x50          80   
.text.SYS_TMR_ObjectDel 0x9fc02a5c           0x50          80   
.text.TCPIP_Helper_Prot 0x9fc02aac           0x50          80   
.text.TCPIP_Helper_Prot 0x9fc02afc           0x50          80   
.text._TCPIPStackModule 0x9fc02b4c           0x50          80   
.text.TCPIP_Notificatio 0x9fc02b9c           0x50          80   
.text._TCPIP_PKT_Packet 0x9fc02bec           0x50          80   
.text.sbrk              0x9fc02c3c           0x50          80   
.text.SYS_RESET_Softwar 0x9fc02c8c           0x4c          76   
.text._MACTxPacketAckCa 0x9fc02cd8           0x4c          76   
.text.DRV_ETHPHY_Reset  0x9fc02d24           0x4c          76   
.text.DRV_ETHPHY_Negoti 0x9fc02d70           0x4c          76   
.text._DRV_PHY_NegCompl 0x9fc02dbc           0x4c          76   
.text._DRV_ETHPHY_Setup 0x9fc02e08           0x4c          76   
.text._TCPIP_HEAP_Callo 0x9fc02e54           0x4c          76   
.text._ARPRemoveCacheEn 0x9fc02ea0           0x4c          76   
.text.TCPIP_Notificatio 0x9fc02eec           0x4c          76   
.text.calloc            0x9fc02f38           0x4c          76   
.text.SYS_CLK_Secondary 0x9fc02f84           0x48          72   
.text.SYS_DEVCON_System 0x9fc02fcc           0x48          72   
.text.DRV_ETHPHY_Reinit 0x9fc03014           0x48          72   
.text.DRV_ETHPHY_Restar 0x9fc0305c           0x48          72   
.text._DRV_ETHPHY_NegRe 0x9fc030a4           0x48          72   
.text._DRV_ETHPHY_Clien 0x9fc030ec           0x48          72   
.text.DRV_TMR_Close     0x9fc03134           0x48          72   
.text._UDPIsAvailablePo 0x9fc0317c           0x48          72   
.text.TCPIP_HEAP_Create 0x9fc031c4           0x48          72   
.text.TCPIP_ARP_Handler 0x9fc0320c           0x48          72   
.text.TCPIP_Helper_Sing 0x9fc03254           0x48          72   
.text.TCPIP_STACK_IPAdd 0x9fc0329c           0x48          72   
.text._bootstrap_except 0x9fc032e4           0x48          72   
.text._cache_err_except 0x9fc0332c           0x48          72   
.text._simple_tlb_refil 0x9fc03374           0x48          72   
.text.BSP_SwitchStateGe 0x9fc033bc           0x44          68   
.text.DRV_ETHPHY_Tasks  0x9fc03400           0x44          68   
.text._SwapARPPacket    0x9fc03444           0x44          68   
.text._TCPIP_STACK_Tick 0x9fc03488           0x44          68   
.text.TCPIP_STACK_NetIs 0x9fc034cc           0x44          68   
.text                   0x9fc03510           0x44          68  App's exec code 
.text.SYS_Tasks         0x9fc03554           0x40          64   
.text._DRV_ETHPHY_NegCo 0x9fc03594           0x40          64   
.text._UDPFreeRxQueue   0x9fc035d4           0x40          64   
.rodata                 0x9fc03614           0x3c          60  Read-only const 
.text._general_exceptio 0x9fc03650           0x3c          60   
.text.APP_Tasks         0x9fc0368c           0x3c          60   
.text._DRV_ETHMAC_LinkS 0x9fc036c8           0x3c          60   
.text.DRV_ETHMAC_Single 0x9fc03704           0x3c          60   
.text._UDPTxPktValid    0x9fc03740           0x3c          60   
.text._ARPTxAckFnc      0x9fc0377c           0x3c          60   
.text.TCPIP_ARP_HashKey 0x9fc037b8           0x3c          60   
.text.TCPIP_OAHASH_Init 0x9fc037f4           0x3c          60   
.text.TCPIP_Helper_Sing 0x9fc03830           0x3c          60   
.text._TCPIPSignalEntry 0x9fc0386c           0x3c          60   
.text.TCPIP_STACK_Index 0x9fc038a8           0x3c          60   
.text._TCPIPStackSetCon 0x9fc038e4           0x3c          60   
.text.TCPIP_STACK_Deini 0x9fc03920           0x3c          60   
.text._TCPIPStackPacket 0x9fc0395c           0x3c          60   
.text.BSP_Initialize    0x9fc03998           0x38          56   
.text.DRV_ETHMAC_LibDes 0x9fc039d0           0x38          56   
.text.DRV_ETHMAC_LibRxP 0x9fc03a08           0x38          56   
.text.DRV_ETHMAC_LibRxS 0x9fc03a40           0x38          56   
.text.DRV_ETHMAC_LibTxP 0x9fc03a78           0x38          56   
.text._DRV_PHY_SMIReadS 0x9fc03ab0           0x38          56   
.text._DRV_PHY_SMIWrite 0x9fc03ae8           0x38          56   
.text._DRV_ETHPHY_Reset 0x9fc03b20           0x38          56   
.text._ARPAllocateTxPac 0x9fc03b58           0x38          56   
.text.TCPIP_STACK_Addre 0x9fc03b90           0x38          56   
.text.TCPIP_PKT_Payload 0x9fc03bc8           0x38          56   
.text.DATASTREAM_Data_R 0x9fc03c00           0x34          52   
.text.DATASTREAM_Data_W 0x9fc03c34           0x34          52   
.text.DRV_ETHPHY_PhyAdd 0x9fc03c68           0x34          52   
.text.DRV_ETHPHY_Client 0x9fc03c9c           0x34          52   
.text._DRV_ETHPHY_LinkS 0x9fc03cd0           0x34          52   
.text._DRV_ETHPHY_NegRe 0x9fc03d04           0x34          52   
.text._DRV_ETHPHY_NegCo 0x9fc03d38           0x34          52   
.text._DRV_ETHPHY_NegRe 0x9fc03d6c           0x34          52   
.text._UDPSocketDcpt    0x9fc03da0           0x34          52   
.text._UDPUpdatePacketL 0x9fc03dd4           0x34          52   
.text.TCPIP_STACK_NetAd 0x9fc03e08           0x34          52   
.text.TCPIP_STACK_NetAd 0x9fc03e3c           0x34          52   
.text._TCPIPStackHandle 0x9fc03e70           0x34          52   
.text.SYS_INT_SourceRes 0x9fc03ea4           0x30          48   
.text.APP_NVMWordWrite  0x9fc03ed4           0x30          48   
.text._MacCallocCallbac 0x9fc03f04           0x30          48   
.text.DRV_ETHMAC_PIC32M 0x9fc03f34           0x30          48   
.text.DRV_ETHMAC_Single 0x9fc03f64           0x30          48   
.text.DRV_ETHPHY_Vendor 0x9fc03f94           0x30          48   
.text._TCPIP_HEAP_FreeS 0x9fc03fc4           0x30          48   
.text.TCPIP_OAHASH_Entr 0x9fc03ff4           0x30          48   
.text.TCPIP_Helper_Sing 0x9fc04024           0x30          48   
.text.TCPIP_STACK_NetAd 0x9fc04054           0x30          48   
.text.TCPIP_STACK_NetMa 0x9fc04084           0x30          48   
.text._TCPIPStackModule 0x9fc040b4           0x30          48   
.text.free              0x9fc040e4           0x30          48   
.text.DATASTREAM_Client 0x9fc04114           0x2c          44   
.text.DRV_ETHPHY_SMISta 0x9fc04140           0x2c          44   
.text._SYS_TMR_AlarmCal 0x9fc0416c           0x2c          44   
.text.TCPIP_Notificatio 0x9fc04198           0x2c          44   
.text._stub_sbd_memlayo 0x9fc041c4           0x2c          44   
.text.DRV_ETHPHY_Close  0x9fc041f0           0x28          40   
.text.SYS_TMR_TickCount 0x9fc04218           0x28          40   
.text._TCPIP_HEAP_Size  0x9fc04240           0x28          40   
.text._TCPIP_HEAP_LastE 0x9fc04268           0x28          40   
.text.TCPIP_STACK_NetMA 0x9fc04290           0x28          40   
.text._TCPIPStackSignal 0x9fc042b8           0x28          40   
.text._snprintf_cdnopsu 0x9fc042e0           0x28          40   
.text.DRV_ETHMAC_PIC32M 0x9fc04308           0x24          36   
.text.SYS_TMR_TickCount 0x9fc0432c           0x24          36   
.text._TCPIPSignalEntry 0x9fc04350           0x24          36   
.text.toupper           0x9fc04374           0x24          36   
.text.main              0x9fc04398           0x20          32   
.text.APP_Initialize    0x9fc043b8           0x20          32   
.rodata                 0x9fc043d8           0x20          32  Read-only const 
.text.DRV_ETHMAC_PIC32M 0x9fc043f8           0x20          32   
.text.TCPIP_UDP_ServerO 0x9fc04418           0x20          32   
.text.TCPIP_HEAP_Malloc 0x9fc04438           0x20          32   
.text.TCPIP_HEAP_Calloc 0x9fc04458           0x20          32   
.text.TCPIP_HEAP_Free   0x9fc04478           0x20          32   
.text.TCPIP_STACK_Statu 0x9fc04498           0x20          32   
.text.APP_FlashErase    0x9fc044b8           0x1c          28   
.text.APP_NVMClearError 0x9fc044d4           0x1c          28   
.text.DRV_ETHPHY_Deinit 0x9fc044f0           0x1c          28   
.text._DRV_ETHPHY_Clien 0x9fc0450c           0x1c          28   
.text.DRV_ETHPHY_Vendor 0x9fc04528           0x1c          28   
.rodata                 0x9fc04544           0x1c          28  Read-only const 
.text.SYS_INT_StatusGet 0x9fc04560           0x1c          28   
.text.SYS_INT_StatusRes 0x9fc0457c           0x1c          28   
.text.SYS_RANDOM_Pseudo 0x9fc04598           0x1c          28   
.text.SYS_TMR_ModuleSta 0x9fc045b4           0x1c          28   
.text.SYS_TMR_CallbackS 0x9fc045d0           0x1c          28   
.text.SYS_TMR_CallbackP 0x9fc045ec           0x1c          28   
.text.TCPIP_Helper_Chec 0x9fc04608           0x1c          28   
.text.TCPIP_Notificatio 0x9fc04624           0x1c          28   
.text.srand             0x9fc04640           0x1c          28   
.text.SYS_DEVCON_JTAGEn 0x9fc0465c           0x18          24   
.text.DRV_ETHPHY_Status 0x9fc04674           0x18          24   
.text.DRV_ETHPHY_Client 0x9fc0468c           0x18          24   
.text.DRV_ETHPHY_Client 0x9fc046a4           0x18          24   
.text.TCPIP_ARP_HashKey 0x9fc046bc           0x18          24   
.text.TCPIP_STACK_NetIx 0x9fc046d4           0x18          24   
.text                   0x9fc046ec           0x18          24  App's exec code 
.text.SYS_DEVCON_Initia 0x9fc04704           0x14          20   
.text.SYS_INT_Initializ 0x9fc04718           0x14          20   
.text.SYS_RESET_ReasonG 0x9fc0472c           0x10          16   
.text.SYS_RESET_ReasonC 0x9fc0473c           0x10          16   
.rodata                 0x9fc0474c           0x20          32  Read-only const 
.text.TCPIP_ARP_HashKey 0x9fc0476c           0x10          16   
.text.TCPIP_Helper_Sing 0x9fc0477c           0x10          16   
.text.SYS_CLK_SystemFre 0x9fc0478c            0xc          12   
.text.DATASTREAM_Buffer 0x9fc04798            0xc          12   
.text.BOOTLOADER_ForceB 0x9fc047a4            0xc          12   
.text.DRV_ETHMAC_PIC32M 0x9fc047b0            0xc          12   
.text._DRV_ETHMAC_GetFr 0x9fc047bc            0xc          12   
.text._DRV_ETHMAC_GetFr 0x9fc047c8            0xc          12   
.text._DRV_ETHMAC_GetFr 0x9fc047d4            0xc          12   
.text._DRV_ETHMAC_GetFr 0x9fc047e0            0xc          12   
.text._DRV_ETHMAC_GetFr 0x9fc047ec            0xc          12   
.text._DRV_ETHMAC_GetAl 0x9fc047f8            0xc          12   
.text._DRV_ETHMAC_GetSC 0x9fc04804            0xc          12   
.text._DRV_ETHMAC_GetMC 0x9fc04810            0xc          12   
.text.DRV_EXTPHY_SMIClo 0x9fc0481c            0xc          12   
.text.TCPIP_STACK_Numbe 0x9fc04828            0xc          12   
.text.DRV_ETHMAC_PIC32M 0x9fc04834            0x8           8   
.text._DRV_ETHPHY_Clien 0x9fc0483c            0x8           8   
.text.TCPIP_PKT_Deiniti 0x9fc04844            0x8           8   
.text._on_reset         0x9fc0484c            0x8           8   
.text._on_bootstrap     0x9fc04854            0x8           8   
.fill1                  0x9fc14000         0xc000       49152   
.text._vfprintf_cdnopsu 0x9fc20000          0xad4        2772   
.text.TCPIP_STACK_Task  0x9fc20ad4          0x82c        2092   
.text.DRV_ETHMAC_PIC32M 0x9fc21300          0x778        1912   
.dinit                  0x9fc21a78          0x6b0        1712   
.text.TCPIP_ARP_Task    0x9fc22128          0x480        1152   
.text                   0x9fc225a8          0x8bc        2236  App's exec code 
.text.TCPIP_STACK_Initi 0x9fc22e64          0x420        1056   
.text.Bootloader_Tasks  0x9fc23284          0x418        1048   
.text.TCPIP_ARP_Initial 0x9fc2369c          0x374         884   
.text.APP_ProgramHexRec 0x9fc23a10          0x34c         844   
.text.TCPIP_UDP_Task    0x9fc23d5c          0x328         808   
.text.TCPIP_UDP_Flush   0x9fc24084          0x318         792   
.text.SYS_TMR_Tasks     0x9fc2439c          0x308         776   
.text.TCPIP_STACK_Bring 0x9fc246a4          0x2f0         752   
.text.TCPIP_IPV4_Packet 0x9fc24994          0x2d0         720   
.text.TCPIP_IPV4_Task   0x9fc24c64          0x2a0         672   
.text.DRV_ETHMAC_PIC32M 0x9fc24f04          0x288         648   
.text.malloc            0x9fc2518c          0x288         648   
.text.TCPIP_IPV4_Packet 0x9fc25414          0x25c         604   
.text                   0x9fc25670          0x25c         604  App's exec code 
.text.IntHandlerDrvTmrI 0x9fc258cc          0x254         596   
.text._IntHandler_ETHMA 0x9fc25b20          0x250         592   
.text.DRV_ETHMAC_PIC32M 0x9fc25d70          0x24c         588   
.text._UDPOpen          0x9fc25fbc          0x238         568   
.text.DRV_ETHMAC_LibRxB 0x9fc261f4          0x228         552   
.text._TCPIP_HEAP_Free  0x9fc2641c          0x228         552   
.text._DRV_PHY_SMITrans 0x9fc26644          0x1f8         504   
.text._DRV_ETHPHY_Setup 0x9fc2683c          0x1f0         496   
.text.DRV_ETHMAC_PIC32M 0x9fc26a2c          0x1d4         468   
.text.SYS_PORTS_Initial 0x9fc26c00          0x1cc         460   
.text.TCPIP_Helper_Stri 0x9fc26dcc          0x1cc         460   
.text._DRV_ETHMAC_AddRx 0x9fc26f98          0x1c8         456   
.text._EthAckPacket     0x9fc27160          0x1bc         444   
.text.DRV_ETHMAC_LibRxA 0x9fc2731c          0x1bc         444   
.text._LoadNetworkConfi 0x9fc274d8          0x1bc         444   
.text.TCPIP_UDP_ArrayGe 0x9fc27694          0x1b0         432   
.text.DRV_TMR_Initializ 0x9fc27844          0x1a0         416   
.text.DRV_ETHMAC_LibRxG 0x9fc279e4          0x19c         412   
.text.DRV_EXTPHY_MDIXCo 0x9fc27b80          0x198         408   
.text._ARPProbeAddress  0x9fc27d18          0x198         408   
.text._sbrk_init        0x9fc27eb0          0x194         404   
.text.TCPIP_UDP_Deiniti 0x9fc28044          0x190         400   
.text._SYS_TMR_ClientCr 0x9fc281d4          0x18c         396   
.text._DRV_ETHPHY_NegRe 0x9fc28360          0x180         384   
.text.DRV_ETHMAC_LibTxS 0x9fc284e0          0x17c         380   
.text.DRV_EXTPHY_MIICon 0x9fc2865c          0x174         372   
.text._TCPIP_HEAP_Mallo 0x9fc287d0          0x174         372   
.text.TCPIP_HEAP_Create 0x9fc28944          0x170         368   
.text                   0x9fc28ab4          0x168         360  App's exec code 
.text.TCPIP_IPV4_Select 0x9fc28c1c          0x164         356   
.text._DRV_ETHPHY_Setup 0x9fc28d80          0x15c         348   
.text._ARPSendIfPkt     0x9fc28edc          0x154         340   
.text._MACDeinit        0x9fc29030          0x150         336   
.text.Bootloader_Proces 0x9fc29180          0x14c         332   
.text.DRV_ETHMAC_PIC32M 0x9fc292cc          0x14c         332   
.rodata                 0x9fc29418          0x148         328  Read-only const 
.text._EthAppendBusyLis 0x9fc29560          0x148         328   
.text._DRV_ETHPHY_Setup 0x9fc296a8          0x144         324   
.text.fputc             0x9fc297ec          0x144         324   
.text.SYS_Initialize    0x9fc29930          0x140         320   
.text.Bootloader_Buffer 0x9fc29a70          0x140         320   
.text.TCPIP_UDP_OpenSer 0x9fc29bb0          0x140         320   
.text._UDPv4TxAckFnc    0x9fc29cf0          0x13c         316   
.text.DATASTREAM_Open   0x9fc29e2c          0x138         312   
.text.DRV_ETHMAC_PIC32M 0x9fc29f64          0x134         308   
.rodata                 0x9fc2a098          0x134         308  Read-only const 
.text._ARPDeleteResourc 0x9fc2a1cc          0x130         304   
.text.DRV_ETHMAC_LibDes 0x9fc2a2fc          0x12c         300   
.text.DRV_TMR_AlarmRegi 0x9fc2a428          0x12c         300   
.text._flsbuf           0x9fc2a554          0x12c         300   
.rodata                 0x9fc2a680          0x128         296  Read-only const 
.text._OAHashFindBkt    0x9fc2a7a8          0x124         292   
.text.TCPIP_Helper_Stri 0x9fc2a8cc          0x124         292   
.text.DRV_ETHMAC_PIC32M 0x9fc2a9f0          0x120         288   
.text                   0x9fc2ab10          0x120         288  App's exec code 
.text.TCPIP_IPV4_ArpHan 0x9fc2ac30          0x11c         284   
.text.TCPIP_ARP_IsResol 0x9fc2ad4c          0x11c         284   
.text._MacRxPacketAck   0x9fc2ae68          0x118         280   
.text._DRV_ETHPHY_Setup 0x9fc2af80          0x118         280   
.text.TCPIP_UDP_Initial 0x9fc2b098          0x118         280   
.text.TCPIP_Helper_Pack 0x9fc2b1b0          0x118         280   
.text.BSP_LEDStateSet   0x9fc2b2c8          0x114         276   
.text.DRV_ETHMAC_PIC32M 0x9fc2b3dc          0x114         276   
.text.TCPIP_STACK_KillS 0x9fc2b4f0          0x110         272   
.text.DRV_ETHMAC_LibIni 0x9fc2b600          0x10c         268   
.text._UDPv4AllocateSkt 0x9fc2b70c          0x108         264   
.text.SYS_DEVCON_Perfor 0x9fc2b814          0x104         260   
.rodata                 0x9fc2b918          0x204         516  Read-only const 
.text.DRV_ETHPHY_Setup  0x9fc2bb1c          0x100         256   
.text.SYS_CLK_Initializ 0x9fc2bc1c           0xfc         252   
.text.DRV_ETHMAC_Tasks_ 0x9fc2bd18           0xf8         248   
.text._UDPsetPacketInfo 0x9fc2be10           0xf8         248   
.text._DRV_ETHPHY_NegCo 0x9fc2bf08           0xf4         244   
.text._TCPIP_StackSyncF 0x9fc2bffc           0xf4         244   
.text._DRV_ETHPHY_Reset 0x9fc2c0f0           0xf0         240   
.text.DRV_ETHMAC_PIC32M 0x9fc2c1e0           0xec         236   
.text._DRV_ETHPHY_Setup 0x9fc2c2cc           0xec         236   
.text.TCPIP_IPV4_DeInit 0x9fc2c3b8           0xec         236   
.text._DRV_TMR_ClockSou 0x9fc2c4a4           0xe8         232   
.text._SYS_TMR_ClientPa 0x9fc2c58c           0xe8         232   
.text.TCPIP_OAHASH_Entr 0x9fc2c674           0xe0         224   
.text.TCPIP_STACK_Bring 0x9fc2c754           0xe0         224   
.text._TCPIP_PKT_Packet 0x9fc2c834           0xe0         224   
.text.general_exception 0x9fc2c914           0xdc         220   
.text._ARPUpdateEntry   0x9fc2c9f0           0xd8         216   
.text._cache_err_except 0x9fc2cac8           0xd8         216   
.text.simple_tlb_refill 0x9fc2cba0           0xd8         216   
.text.DATASTREAM_Close  0x9fc2cc78           0xd4         212   
.text._MacTxPendingPack 0x9fc2cd4c           0xd4         212   
.text._DRV_ETHPHY_NegRe 0x9fc2ce20           0xd4         212   
.text.DRV_TMR_CounterFr 0x9fc2cef4           0xd4         212   
.text._mon_putc         0x9fc2cfc8           0xd4         212   
.text.DATASTREAM_Tasks  0x9fc2d09c           0xd0         208   
.text._DRV_ETHMAC_LinkS 0x9fc2d16c           0xd0         208   
.text.DRV_ETHMAC_LibTxA 0x9fc2d23c           0xd0         208   
.rodata                 0x9fc2d30c            0x4           4  Read-only const 
.rodata                 0x9fc2d310           0xd0         208  Read-only const 
.text.DRV_TMR_Tasks     0x9fc2d3e0           0xc8         200   
.text.TCPIP_OAHASH_Entr 0x9fc2d4a8           0xc8         200   
.text._TCPIPStackModule 0x9fc2d570           0xc8         200   
.text._sbrk             0x9fc2d638           0xc8         200   
.text._DRV_TMR_ClockPre 0x9fc2d700           0xc4         196   
.text.SYS_TMR_Initializ 0x9fc2d7c4           0xc4         196   
.text.TCPIP_UDP_ArrayPu 0x9fc2d888           0xc0         192   
.text.TCPIP_PKT_DataSeg 0x9fc2d948           0xbc         188   
.tlb.__pic32_tlb_init_e 0x9fc2da04           0xbc         188   
.text._EthTxSchedBuffer 0x9fc2dac0           0xb4         180   
.text._TCPIP_HEAP_MaxSi 0x9fc2db74           0xb4         180   
.text._ARPNotifyClients 0x9fc2dc28           0xb4         180   
.text._DRV_ETHPHY_Reset 0x9fc2dcdc           0xb0         176   
.text.DRV_ETHPHY_Vendor 0x9fc2dd8c           0xb0         176   
.text._SYS_TMR_ClientCh 0x9fc2de3c           0xb0         176   
.text.BSP_LEDOff        0x9fc2deec           0xac         172   
.text._DRV_ETHMAC_LinkS 0x9fc2df98           0xac         172   
.text._DRV_ETHPHY_NegCo 0x9fc2e044           0xac         172   
.text.DRV_ETHPHY_Vendor 0x9fc2e0f0           0xac         172   
.text._TCPIPStackInsert 0x9fc2e19c           0xac         172   
.text.DRV_ETHMAC_PIC32M 0x9fc2e248           0xa8         168   
.text.DRV_ETHPHY_SMIWri 0x9fc2e2f0           0xa8         168   
.text._DRV_ETHPHY_Setup 0x9fc2e398           0xa8         168   
.text                   0x9fc2e440           0xa8         168  App's exec code 
.text.atoi              0x9fc2e4e8           0xa8         168   
.text.TCPIP_IPV4_Initia 0x9fc2e590           0xa4         164   
.text.TCPIP_UDP_PutIsRe 0x9fc2e634           0xa4         164   
.text._TCPIP_PKT_Packet 0x9fc2e6d8           0xa4         164   
.text._DRV_ETHPHY_LinkS 0x9fc2e77c           0xa0         160   
.text.TCPIP_Helper_Sing 0x9fc2e81c           0xa0         160   
.text.TCPIP_PKT_PacketM 0x9fc2e8bc           0xa0         160   
.text._DRV_ETHMAC_LinkS 0x9fc2e95c           0x9c         156   
.text.write             0x9fc2e9f8           0x9c         156   
.text.Bootloader_Initia 0x9fc2ea94           0x98         152   
.text.DRV_ETHMAC_PIC32M 0x9fc2eb2c           0x98         152   
.text._EthTxSchedList   0x9fc2ebc4           0x98         152   
.text.DRV_ETHMAC_LibDes 0x9fc2ec5c           0x98         152   
.text.DRV_ETHPHY_Initia 0x9fc2ecf4           0x98         152   
.text._UDPSetNewRxPacke 0x9fc2ed8c           0x98         152   
.text.TCPIP_Helper_Form 0x9fc2ee24           0x98         152   
.text                   0x9fc2eebc           0x98         152  App's exec code 
.text.DRV_ETHPHY_SMIClo 0x9fc2ef54           0x94         148   
.text.TCPIP_ARP_Deiniti 0x9fc2efe8           0x94         148   
.text.TCPIP_ARP_EntryGe 0x9fc2f07c           0x94         148   
.text.TCPIP_Helper_Prot 0x9fc2f110           0x94         148   
.text._DRV_ETHMAC_LinkS 0x9fc2f1a4           0x90         144   
.text._DRV_ETHPHY_NegCo 0x9fc2f234           0x90         144   
.text.TCPIP_Helper_Prot 0x9fc2f2c4           0x90         144   
.text.TCPIP_Helper_Prot 0x9fc2f354           0x90         144   
.text._TCPIPStackIpAddF 0x9fc2f3e4           0x90         144   
.text.hexatob           0x9fc2f474           0x8c         140   
.text.TCPIP_UDP_Close   0x9fc2f500           0x8c         140   
.text.rand              0x9fc2f58c           0x8c         140   
.text.DRV_ETHMAC_LibClo 0x9fc2f618           0x88         136   
.text.TCPIP_Helper_Prot 0x9fc2f6a0           0x88         136   
.text.APP_NVMOperation  0x9fc2f728           0x84         132   
.text.DRV_ETHPHY_Open   0x9fc2f7ac           0x84         132   
.text.DRV_ETHPHY_Vendor 0x9fc2f830           0x84         132   
.text._DRV_TMR_ModuleOb 0x9fc2f8b4           0x84         132   
.text.DRV_ETHPHY_SMISca 0x9fc2f938           0x80         128   
.text._DRV_ETHPHY_Setup 0x9fc2f9b8           0x80         128   
.text.DRV_ETHPHY_SMIRea 0x9fc2fa38           0x7c         124   
.text._DRV_ETHPHY_Setup 0x9fc2fab4           0x7c         124   
.text._UDPAllocateEphem 0x9fc2fb30           0x7c         124   
.text.TCPIP_ARP_Handler 0x9fc2fbac           0x7c         124   
.text.APP_CalculateCrc  0x9fc2fc28           0x78         120   
.text.DRV_ETHPHY_SMISca 0x9fc2fca0           0x78         120   
.text._DRV_ETHPHY_NegRe 0x9fc2fd18           0x78         120   
.text._DRV_ETHPHY_Setup 0x9fc2fd90           0x78         120   
.text.TCPIP_Helper_Prot 0x9fc2fe08           0x78         120   
.text._TCPIP_MacEventCB 0x9fc2fe80           0x78         120   
.text.DRV_ETHMAC_PIC32M 0x9fc2fef8            0x8           8   
      Total kseg0_program_mem used  :     0x1f75c      128860  67.0% of 0x2ef00

kseg0 Boot-Memory Usage
section                    address  length [bytes]      (dec)  Description
-------                 ----------  -------------------------  -----------
         Total kseg0_boot_mem used  :           0           0  

kseg1 Boot-Memory Usage
section                    address  length [bytes]      (dec)  Description
-------                 ----------  -------------------------  -----------
.reset                  0xbfc00000          0x220         544  Reset handler 
.bev_excpt              0xbfc00380           0x10          16  BEV-Exception 
         Total kseg1_boot_mem used  :       0x230         560  48.6% of 0x480
        --------------------------------------------------------------------------
         Total Program Memory used  :     0x1f98c      129420  66.9% of 0x2f380
        --------------------------------------------------------------------------


kseg0 Data-Memory Usage
section                    address  length [bytes]      (dec)  Description
-------                 ----------  -------------------------  -----------
.sdata                  0x80000000           0x3c          60  Small init data 
.sbss                   0x8000003c           0xc4         196  Small uninit data 
.bss                    0x80000100           0x1c          28  Uninitialized data 
.bss.errno              0x8000011c            0x4           4   
.bss                    0x80000520          0x31c         796  Uninitialized data 
.data                   0x80000840          0x140         320  Initialized data 
.bss                    0x80000980           0xec         236  Uninitialized data 
.bss                    0x80000ac0          0x128         296  Uninitialized data 
.data                   0x80000be8           0x1c          28  Initialized data 
.bss                    0x80000c04           0x44          68  Uninitialized data 
.bss.data_buff.data_buf 0x80000120          0x400        1024   
.bss.bootloaderData.boo 0x80000a70           0x50          80   
         Total kseg0_data_mem used  :       0xc40        3136  0.6% of 0x80000
        --------------------------------------------------------------------------
            Total Data Memory used  :       0xc40        3136  0.6% of 0x80000
        --------------------------------------------------------------------------


Dynamic Data-Memory Reservation
section                    address  length [bytes]      (dec)  Description
-------                 ----------  -------------------------  -----------
heap                    0x80000c50         0xafa0       44960  Reserved for heap 
stack                   0x8000bc08        0x743f0      476144  Reserved for stack 

        --------------------------------------------------------------------------

Discarded input sections

 .text          0x00000000        0x0 c:/program files (x86)/microchip/xc32/v1.42/bin/bin/../../lib/gcc/pic32mx/4.8.3/../../../../pic32mx/lib/./proc/32MZ2048EFH144/crt0_mips32r2.o
 .data          0x00000000        0x0 c:/program files (x86)/microchip/xc32/v1.42/bin/bin/../../lib/gcc/pic32mx/4.8.3/../../../../pic32mx/lib/./proc/32MZ2048EFH144/crt0_mips32r2.o
 .bss           0x00000000        0x0 c:/program files (x86)/microchip/xc32/v1.42/bin/bin/../../lib/gcc/pic32mx/4.8.3/../../../../pic32mx/lib/./proc/32MZ2048EFH144/crt0_mips32r2.o
 .text          0x00000000        0x0 c:/program files (x86)/microchip/xc32/v1.42/bin/bin/../../lib/gcc/pic32mx/4.8.3/../../../../pic32mx/lib/fpu64\debug-exception-return.o
 .data          0x00000000        0x0 c:/program files (x86)/microchip/xc32/v1.42/bin/bin/../../lib/gcc/pic32mx/4.8.3/../../../../pic32mx/lib/fpu64\debug-exception-return.o
 .bss           0x00000000        0x0 c:/program files (x86)/microchip/xc32/v1.42/bin/bin/../../lib/gcc/pic32mx/4.8.3/../../../../pic32mx/lib/fpu64\debug-exception-return.o
 .reginfo       0x00000000       0x18 c:/program files (x86)/microchip/xc32/v1.42/bin/bin/../../lib/gcc/pic32mx/4.8.3/../../../../pic32mx/lib/fpu64\debug-exception-return.o
 .text          0x00000000        0x0 build/udp_pic32mz_ef_sk/production/_ext/938613576/bsp.o
 .data          0x00000000        0x0 build/udp_pic32mz_ef_sk/production/_ext/938613576/bsp.o
 .bss           0x00000000        0x0 build/udp_pic32mz_ef_sk/production/_ext/938613576/bsp.o
 .reginfo       0x00000000       0x18 build/udp_pic32mz_ef_sk/production/_ext/938613576/bsp.o
 .text.BSP_LEDToggle
                0x00000000       0x4c build/udp_pic32mz_ef_sk/production/_ext/938613576/bsp.o
 .text.BSP_LEDStateGet
                0x00000000       0x58 build/udp_pic32mz_ef_sk/production/_ext/938613576/bsp.o
 .text.BSP_LEDOn
                0x00000000       0xac build/udp_pic32mz_ef_sk/production/_ext/938613576/bsp.o
 .text.BSP_USBVBUSSwitchStateSet
                0x00000000       0x28 build/udp_pic32mz_ef_sk/production/_ext/938613576/bsp.o
 .text.BSP_USBVBUSSwitchOverCurrentDetect
                0x00000000        0x8 build/udp_pic32mz_ef_sk/production/_ext/938613576/bsp.o
 .text.BSP_USBVBUSPowerEnable
                0x00000000       0x2c build/udp_pic32mz_ef_sk/production/_ext/938613576/bsp.o
 .text          0x00000000        0x0 build/udp_pic32mz_ef_sk/production/_ext/1991045727/sys_clk_pic32mz.o
 .data          0x00000000        0x0 build/udp_pic32mz_ef_sk/production/_ext/1991045727/sys_clk_pic32mz.o
 .bss           0x00000000        0x0 build/udp_pic32mz_ef_sk/production/_ext/1991045727/sys_clk_pic32mz.o
 .reginfo       0x00000000       0x18 build/udp_pic32mz_ef_sk/production/_ext/1991045727/sys_clk_pic32mz.o
 .text.SYS_CLK_ReferenceFrequencyGet
                0x00000000        0x8 build/udp_pic32mz_ef_sk/production/_ext/1991045727/sys_clk_pic32mz.o
 .text.SYS_CLK_SecondaryOscillatorDisable
                0x00000000       0x48 build/udp_pic32mz_ef_sk/production/_ext/1991045727/sys_clk_pic32mz.o
 .text.SYS_CLK_SecondaryOscillatorIsEnabled
                0x00000000       0x10 build/udp_pic32mz_ef_sk/production/_ext/1991045727/sys_clk_pic32mz.o
 .text          0x00000000        0x0 build/udp_pic32mz_ef_sk/production/_ext/2092611130/sys_devcon.o
 .data          0x00000000        0x0 build/udp_pic32mz_ef_sk/production/_ext/2092611130/sys_devcon.o
 .bss           0x00000000        0x0 build/udp_pic32mz_ef_sk/production/_ext/2092611130/sys_devcon.o
 .reginfo       0x00000000       0x18 build/udp_pic32mz_ef_sk/production/_ext/2092611130/sys_devcon.o
 .text.SYS_DEVCON_Reinitialize
                0x00000000       0x10 build/udp_pic32mz_ef_sk/production/_ext/2092611130/sys_devcon.o
 .text.SYS_DEVCON_Deinitialize
                0x00000000        0x8 build/udp_pic32mz_ef_sk/production/_ext/2092611130/sys_devcon.o
 .text.SYS_DEVCON_Status
                0x00000000        0x8 build/udp_pic32mz_ef_sk/production/_ext/2092611130/sys_devcon.o
 .text.SYS_DEVCON_Tasks
                0x00000000        0x8 build/udp_pic32mz_ef_sk/production/_ext/2092611130/sys_devcon.o
 .text.SYS_DEVCON_JTAGDisable
                0x00000000       0x1c build/udp_pic32mz_ef_sk/production/_ext/2092611130/sys_devcon.o
 .text.SYS_DEVCON_TraceEnable
                0x00000000       0x1c build/udp_pic32mz_ef_sk/production/_ext/2092611130/sys_devcon.o
 .text.SYS_DEVCON_TraceDisable
                0x00000000       0x18 build/udp_pic32mz_ef_sk/production/_ext/2092611130/sys_devcon.o
 .text.SYS_DEVCON_PowerModeEnter
                0x00000000       0x44 build/udp_pic32mz_ef_sk/production/_ext/2092611130/sys_devcon.o
 .text          0x00000000        0x0 build/udp_pic32mz_ef_sk/production/_ext/2092611130/sys_devcon_pic32mz.o
 .data          0x00000000        0x0 build/udp_pic32mz_ef_sk/production/_ext/2092611130/sys_devcon_pic32mz.o
 .bss           0x00000000        0x0 build/udp_pic32mz_ef_sk/production/_ext/2092611130/sys_devcon_pic32mz.o
 .reginfo       0x00000000       0x18 build/udp_pic32mz_ef_sk/production/_ext/2092611130/sys_devcon_pic32mz.o
 .text.SYS_DEVCON_CacheInit
                0x00000000       0x24 build/udp_pic32mz_ef_sk/production/_ext/2092611130/sys_devcon_pic32mz.o
 .text.SYS_DEVCON_CacheFlush
                0x00000000       0x24 build/udp_pic32mz_ef_sk/production/_ext/2092611130/sys_devcon_pic32mz.o
 .text.SYS_DEVCON_DataCacheFlush
                0x00000000       0x24 build/udp_pic32mz_ef_sk/production/_ext/2092611130/sys_devcon_pic32mz.o
 .text.SYS_DEVCON_InstructionCacheFlush
                0x00000000       0x24 build/udp_pic32mz_ef_sk/production/_ext/2092611130/sys_devcon_pic32mz.o
 .text.SYS_DEVCON_CacheClean
                0x00000000       0x24 build/udp_pic32mz_ef_sk/production/_ext/2092611130/sys_devcon_pic32mz.o
 .text.SYS_DEVCON_DataCacheClean
                0x00000000       0x24 build/udp_pic32mz_ef_sk/production/_ext/2092611130/sys_devcon_pic32mz.o
 .text.SYS_DEVCON_DataCacheInvalidate
                0x00000000       0x24 build/udp_pic32mz_ef_sk/production/_ext/2092611130/sys_devcon_pic32mz.o
 .text.SYS_DEVCON_InstructionCacheInvalidate
                0x00000000       0x24 build/udp_pic32mz_ef_sk/production/_ext/2092611130/sys_devcon_pic32mz.o
 .text.SYS_DEVCON_InstructionCacheLock
                0x00000000       0x24 build/udp_pic32mz_ef_sk/production/_ext/2092611130/sys_devcon_pic32mz.o
 .text.SYS_DEVCON_DataCacheLock
                0x00000000       0x24 build/udp_pic32mz_ef_sk/production/_ext/2092611130/sys_devcon_pic32mz.o
 .text.SYS_DEVCON_CacheSync
                0x00000000       0x24 build/udp_pic32mz_ef_sk/production/_ext/2092611130/sys_devcon_pic32mz.o
 .text.SYS_DEVCON_CacheCoherencySet
                0x00000000       0x2c build/udp_pic32mz_ef_sk/production/_ext/2092611130/sys_devcon_pic32mz.o
 .text.SYS_DEVCON_CacheCoherencyGet
                0x00000000       0x1c build/udp_pic32mz_ef_sk/production/_ext/2092611130/sys_devcon_pic32mz.o
 .text.SYS_DEVCON_DataCacheAssociativityGet
                0x00000000       0x24 build/udp_pic32mz_ef_sk/production/_ext/2092611130/sys_devcon_pic32mz.o
 .text.SYS_DEVCON_InstructionCacheAssociativityGet
                0x00000000       0x24 build/udp_pic32mz_ef_sk/production/_ext/2092611130/sys_devcon_pic32mz.o
 .text.SYS_DEVCON_DataCacheLineSizeGet
                0x00000000       0x24 build/udp_pic32mz_ef_sk/production/_ext/2092611130/sys_devcon_pic32mz.o
 .text.SYS_DEVCON_InstructionCacheLineSizeGet
                0x00000000       0x24 build/udp_pic32mz_ef_sk/production/_ext/2092611130/sys_devcon_pic32mz.o
 .text.SYS_DEVCON_DataCacheLinesPerWayGet
                0x00000000       0x24 build/udp_pic32mz_ef_sk/production/_ext/2092611130/sys_devcon_pic32mz.o
 .text.SYS_DEVCON_InstructionCacheLinesPerWayGet
                0x00000000       0x24 build/udp_pic32mz_ef_sk/production/_ext/2092611130/sys_devcon_pic32mz.o
 .text.SYS_DEVCON_DataCacheSizeGet
                0x00000000       0x24 build/udp_pic32mz_ef_sk/production/_ext/2092611130/sys_devcon_pic32mz.o
 .text.SYS_DEVCON_InstructionCacheSizeGet
                0x00000000       0x24 build/udp_pic32mz_ef_sk/production/_ext/2092611130/sys_devcon_pic32mz.o
 .text          0x00000000      0x6bc build/udp_pic32mz_ef_sk/production/_ext/2092611130/sys_devcon_cache_pic32mz.o
 .data          0x00000000        0x0 build/udp_pic32mz_ef_sk/production/_ext/2092611130/sys_devcon_cache_pic32mz.o
 .bss           0x00000000        0x0 build/udp_pic32mz_ef_sk/production/_ext/2092611130/sys_devcon_cache_pic32mz.o
 .reginfo       0x00000000       0x18 build/udp_pic32mz_ef_sk/production/_ext/2092611130/sys_devcon_cache_pic32mz.o
 .debug_line    0x00000000      0x22a build/udp_pic32mz_ef_sk/production/_ext/2092611130/sys_devcon_cache_pic32mz.o
 .debug_info    0x00000000       0xc8 build/udp_pic32mz_ef_sk/production/_ext/2092611130/sys_devcon_cache_pic32mz.o
 .debug_abbrev  0x00000000       0x14 build/udp_pic32mz_ef_sk/production/_ext/2092611130/sys_devcon_cache_pic32mz.o
 .debug_aranges
                0x00000000       0x20 build/udp_pic32mz_ef_sk/production/_ext/2092611130/sys_devcon_cache_pic32mz.o
 .text          0x00000000        0x0 build/udp_pic32mz_ef_sk/production/_ext/1633430821/sys_memory_smc_static.o
 .data          0x00000000        0x0 build/udp_pic32mz_ef_sk/production/_ext/1633430821/sys_memory_smc_static.o
 .bss           0x00000000        0x0 build/udp_pic32mz_ef_sk/production/_ext/1633430821/sys_memory_smc_static.o
 .reginfo       0x00000000       0x18 build/udp_pic32mz_ef_sk/production/_ext/1633430821/sys_memory_smc_static.o
 .text          0x00000000        0x0 build/udp_pic32mz_ef_sk/production/_ext/641914703/sys_ports_static.o
 .data          0x00000000        0x0 build/udp_pic32mz_ef_sk/production/_ext/641914703/sys_ports_static.o
 .bss           0x00000000        0x0 build/udp_pic32mz_ef_sk/production/_ext/641914703/sys_ports_static.o
 .reginfo       0x00000000       0x18 build/udp_pic32mz_ef_sk/production/_ext/641914703/sys_ports_static.o
 .text.SYS_PORTS_Read
                0x00000000       0x24 build/udp_pic32mz_ef_sk/production/_ext/641914703/sys_ports_static.o
 .text.SYS_PORTS_Write
                0x00000000       0x28 build/udp_pic32mz_ef_sk/production/_ext/641914703/sys_ports_static.o
 .text.SYS_PORTS_LatchedGet
                0x00000000        0x8 build/udp_pic32mz_ef_sk/production/_ext/641914703/sys_ports_static.o
 .text.SYS_PORTS_Set
                0x00000000       0x30 build/udp_pic32mz_ef_sk/production/_ext/641914703/sys_ports_static.o
 .text.SYS_PORTS_Clear
                0x00000000       0x2c build/udp_pic32mz_ef_sk/production/_ext/641914703/sys_ports_static.o
 .text.SYS_PORTS_DirectionSelect
                0x00000000       0x5c build/udp_pic32mz_ef_sk/production/_ext/641914703/sys_ports_static.o
 .text.SYS_PORTS_DirectionGet
                0x00000000       0x24 build/udp_pic32mz_ef_sk/production/_ext/641914703/sys_ports_static.o
 .text.SYS_PORTS_Toggle
                0x00000000       0x2c build/udp_pic32mz_ef_sk/production/_ext/641914703/sys_ports_static.o
 .text.SYS_PORTS_OpenDrainEnable
                0x00000000       0x2c build/udp_pic32mz_ef_sk/production/_ext/641914703/sys_ports_static.o
 .text.SYS_PORTS_OpenDrainDisable
                0x00000000       0x2c build/udp_pic32mz_ef_sk/production/_ext/641914703/sys_ports_static.o
 .text.SYS_PORTS_InterruptStatusGet
                0x00000000        0x8 build/udp_pic32mz_ef_sk/production/_ext/641914703/sys_ports_static.o
 .text.SYS_PORTS_ChangeNotificationGlobalEnable
                0x00000000        0x8 build/udp_pic32mz_ef_sk/production/_ext/641914703/sys_ports_static.o
 .text.SYS_PORTS_ChangeNotificationGlobalDisable
                0x00000000        0x8 build/udp_pic32mz_ef_sk/production/_ext/641914703/sys_ports_static.o
 .text.SYS_PORTS_GlobalChangeNotificationDisable
                0x00000000        0x8 build/udp_pic32mz_ef_sk/production/_ext/641914703/sys_ports_static.o
 .text.SYS_PORTS_ChangeNotificationEnable
                0x00000000        0x8 build/udp_pic32mz_ef_sk/production/_ext/641914703/sys_ports_static.o
 .text.SYS_PORTS_ChangeNotificationDisable
                0x00000000        0x8 build/udp_pic32mz_ef_sk/production/_ext/641914703/sys_ports_static.o
 .text.SYS_PORTS_ChangeNotificationInIdleModeEnable
                0x00000000        0x8 build/udp_pic32mz_ef_sk/production/_ext/641914703/sys_ports_static.o
 .text.SYS_PORTS_ChangeNotificationInIdleModeDisable
                0x00000000        0x8 build/udp_pic32mz_ef_sk/production/_ext/641914703/sys_ports_static.o
 .text.SYS_PORTS_ChangeNotificationPullUpEnable
                0x00000000        0x8 build/udp_pic32mz_ef_sk/production/_ext/641914703/sys_ports_static.o
 .text.SYS_PORTS_ChangeNotificationPullUpDisable
                0x00000000        0x8 build/udp_pic32mz_ef_sk/production/_ext/641914703/sys_ports_static.o
 .text.SYS_PORTS_PinModeSelect
                0x00000000       0x64 build/udp_pic32mz_ef_sk/production/_ext/641914703/sys_ports_static.o
 .text.SYS_PORTS_PinWrite
                0x00000000       0x64 build/udp_pic32mz_ef_sk/production/_ext/641914703/sys_ports_static.o
 .text.SYS_PORTS_PinLatchedGet
                0x00000000        0x8 build/udp_pic32mz_ef_sk/production/_ext/641914703/sys_ports_static.o
 .text.SYS_PORTS_PinRead
                0x00000000       0x28 build/udp_pic32mz_ef_sk/production/_ext/641914703/sys_ports_static.o
 .text.SYS_PORTS_PinToggle
                0x00000000       0x30 build/udp_pic32mz_ef_sk/production/_ext/641914703/sys_ports_static.o
 .text.SYS_PORTS_PinSet
                0x00000000       0x30 build/udp_pic32mz_ef_sk/production/_ext/641914703/sys_ports_static.o
 .text.SYS_PORTS_PinClear
                0x00000000       0x30 build/udp_pic32mz_ef_sk/production/_ext/641914703/sys_ports_static.o
 .text.SYS_PORTS_PinDirectionSelect
                0x00000000       0x60 build/udp_pic32mz_ef_sk/production/_ext/641914703/sys_ports_static.o
 .text.SYS_PORTS_PinOpenDrainEnable
                0x00000000       0x30 build/udp_pic32mz_ef_sk/production/_ext/641914703/sys_ports_static.o
 .text.SYS_PORTS_PinOpenDrainDisable
                0x00000000       0x30 build/udp_pic32mz_ef_sk/production/_ext/641914703/sys_ports_static.o
 .text.SYS_PORTS_PinPullUpEnable
                0x00000000        0x8 build/udp_pic32mz_ef_sk/production/_ext/641914703/sys_ports_static.o
 .text.SYS_PORTS_PinPullUpDisable
                0x00000000        0x8 build/udp_pic32mz_ef_sk/production/_ext/641914703/sys_ports_static.o
 .text.SYS_PORTS_PinPullDownEnable
                0x00000000        0x8 build/udp_pic32mz_ef_sk/production/_ext/641914703/sys_ports_static.o
 .text.SYS_PORTS_PinPullDownDisable
                0x00000000        0x8 build/udp_pic32mz_ef_sk/production/_ext/641914703/sys_ports_static.o
 .text.SYS_PORTS_InterruptEnable
                0x00000000        0x8 build/udp_pic32mz_ef_sk/production/_ext/641914703/sys_ports_static.o
 .text.SYS_PORTS_RemapInput
                0x00000000       0x64 build/udp_pic32mz_ef_sk/production/_ext/641914703/sys_ports_static.o
 .text.SYS_PORTS_RemapOutput
                0x00000000       0x70 build/udp_pic32mz_ef_sk/production/_ext/641914703/sys_ports_static.o
 .text          0x00000000        0x0 build/udp_pic32mz_ef_sk/production/_ext/1532728844/sys_reset.o
 .data          0x00000000        0x0 build/udp_pic32mz_ef_sk/production/_ext/1532728844/sys_reset.o
 .bss           0x00000000        0x0 build/udp_pic32mz_ef_sk/production/_ext/1532728844/sys_reset.o
 .reginfo       0x00000000       0x18 build/udp_pic32mz_ef_sk/production/_ext/1532728844/sys_reset.o
 .text.SYS_RESET_NMIDelayCountSet
                0x00000000       0x40 build/udp_pic32mz_ef_sk/production/_ext/1532728844/sys_reset.o
 .text          0x00000000        0x0 build/udp_pic32mz_ef_sk/production/_ext/2145045400/system_init.o
 .bss           0x00000000        0x0 build/udp_pic32mz_ef_sk/production/_ext/2145045400/system_init.o
 .reginfo       0x00000000       0x18 build/udp_pic32mz_ef_sk/production/_ext/2145045400/system_init.o
 .text          0x00000000        0x0 build/udp_pic32mz_ef_sk/production/_ext/2145045400/system_interrupt.o
 .data          0x00000000        0x0 build/udp_pic32mz_ef_sk/production/_ext/2145045400/system_interrupt.o
 .bss           0x00000000        0x0 build/udp_pic32mz_ef_sk/production/_ext/2145045400/system_interrupt.o
 .reginfo       0x00000000       0x18 build/udp_pic32mz_ef_sk/production/_ext/2145045400/system_interrupt.o
 .text          0x00000000        0x0 build/udp_pic32mz_ef_sk/production/_ext/2145045400/system_exceptions.o
 .data          0x00000000        0x0 build/udp_pic32mz_ef_sk/production/_ext/2145045400/system_exceptions.o
 .bss           0x00000000        0x0 build/udp_pic32mz_ef_sk/production/_ext/2145045400/system_exceptions.o
 .reginfo       0x00000000       0x18 build/udp_pic32mz_ef_sk/production/_ext/2145045400/system_exceptions.o
 .text          0x00000000        0x0 build/udp_pic32mz_ef_sk/production/_ext/2145045400/system_tasks.o
 .data          0x00000000        0x0 build/udp_pic32mz_ef_sk/production/_ext/2145045400/system_tasks.o
 .bss           0x00000000        0x0 build/udp_pic32mz_ef_sk/production/_ext/2145045400/system_tasks.o
 .reginfo       0x00000000       0x18 build/udp_pic32mz_ef_sk/production/_ext/2145045400/system_tasks.o
 .text          0x00000000        0x0 build/udp_pic32mz_ef_sk/production/_ext/1360937237/main.o
 .data          0x00000000        0x0 build/udp_pic32mz_ef_sk/production/_ext/1360937237/main.o
 .bss           0x00000000        0x0 build/udp_pic32mz_ef_sk/production/_ext/1360937237/main.o
 .reginfo       0x00000000       0x18 build/udp_pic32mz_ef_sk/production/_ext/1360937237/main.o
 .text          0x00000000        0x0 build/udp_pic32mz_ef_sk/production/_ext/1360937237/app.o
 .data          0x00000000        0x0 build/udp_pic32mz_ef_sk/production/_ext/1360937237/app.o
 .bss           0x00000000        0x0 build/udp_pic32mz_ef_sk/production/_ext/1360937237/app.o
 .reginfo       0x00000000       0x18 build/udp_pic32mz_ef_sk/production/_ext/1360937237/app.o
 .text          0x00000000        0x0 build/udp_pic32mz_ef_sk/production/_ext/615392287/datastream.o
 .data          0x00000000        0x0 build/udp_pic32mz_ef_sk/production/_ext/615392287/datastream.o
 .bss           0x00000000        0x0 build/udp_pic32mz_ef_sk/production/_ext/615392287/datastream.o
 .reginfo       0x00000000       0x18 build/udp_pic32mz_ef_sk/production/_ext/615392287/datastream.o
 .text.DATASTREAM_ClientStatus
                0x00000000        0x8 build/udp_pic32mz_ef_sk/production/_ext/615392287/datastream.o
 .text.DATASTREAM_Open
                0x00000000        0x8 build/udp_pic32mz_ef_sk/production/_ext/615392287/datastream.o
 .text.DATASTREAM_Close
                0x00000000       0x10 build/udp_pic32mz_ef_sk/production/_ext/615392287/datastream.o
 .text          0x00000000        0x0 build/udp_pic32mz_ef_sk/production/_ext/615392287/datastream_udp.o
 .data          0x00000000        0x0 build/udp_pic32mz_ef_sk/production/_ext/615392287/datastream_udp.o
 .bss           0x00000000        0x0 build/udp_pic32mz_ef_sk/production/_ext/615392287/datastream_udp.o
 .reginfo       0x00000000       0x18 build/udp_pic32mz_ef_sk/production/_ext/615392287/datastream_udp.o
 .text          0x00000000        0x0 build/udp_pic32mz_ef_sk/production/_ext/686445382/bootloader.o
 .data          0x00000000        0x0 build/udp_pic32mz_ef_sk/production/_ext/686445382/bootloader.o
 .bss           0x00000000        0x0 build/udp_pic32mz_ef_sk/production/_ext/686445382/bootloader.o
 .reginfo       0x00000000       0x18 build/udp_pic32mz_ef_sk/production/_ext/686445382/bootloader.o
 .text.ConvertAsciiToHex
                0x00000000       0x84 build/udp_pic32mz_ef_sk/production/_ext/686445382/bootloader.o
 .text.BOOTLOADER_FlashEraseRegister
                0x00000000        0xc build/udp_pic32mz_ef_sk/production/_ext/686445382/bootloader.o
 .text.BOOTLOADER_StartAppRegister
                0x00000000        0xc build/udp_pic32mz_ef_sk/production/_ext/686445382/bootloader.o
 .text.BOOTLOADER_BlankCheckRegister
                0x00000000        0xc build/udp_pic32mz_ef_sk/production/_ext/686445382/bootloader.o
 .text.BOOTLOADER_ProgramCompleteRegister
                0x00000000        0xc build/udp_pic32mz_ef_sk/production/_ext/686445382/bootloader.o
 .text          0x00000000        0x0 build/udp_pic32mz_ef_sk/production/_ext/686445382/nvm.o
 .data          0x00000000        0x0 build/udp_pic32mz_ef_sk/production/_ext/686445382/nvm.o
 .reginfo       0x00000000       0x18 build/udp_pic32mz_ef_sk/production/_ext/686445382/nvm.o
 .text._BTL_IsPageBlank
                0x00000000       0x40 build/udp_pic32mz_ef_sk/production/_ext/686445382/nvm.o
 .text.APP_NVMRowWrite
                0x00000000       0x34 build/udp_pic32mz_ef_sk/production/_ext/686445382/nvm.o
 .text          0x00000000        0x0 build/udp_pic32mz_ef_sk/production/_ext/1697634946/drv_ethmac.o
 .bss           0x00000000        0x0 build/udp_pic32mz_ef_sk/production/_ext/1697634946/drv_ethmac.o
 .reginfo       0x00000000       0x18 build/udp_pic32mz_ef_sk/production/_ext/1697634946/drv_ethmac.o
 .text          0x00000000        0x0 build/udp_pic32mz_ef_sk/production/_ext/1697634946/drv_ethmac_lib.o
 .data          0x00000000        0x0 build/udp_pic32mz_ef_sk/production/_ext/1697634946/drv_ethmac_lib.o
 .bss           0x00000000        0x0 build/udp_pic32mz_ef_sk/production/_ext/1697634946/drv_ethmac_lib.o
 .reginfo       0x00000000       0x18 build/udp_pic32mz_ef_sk/production/_ext/1697634946/drv_ethmac_lib.o
 .text.DRV_ETHMAC_LibDescriptorsPoolRemove
                0x00000000       0xc4 build/udp_pic32mz_ef_sk/production/_ext/1697634946/drv_ethmac_lib.o
 .text.DRV_ETHMAC_LibTxSendBuffer
                0x00000000       0xec build/udp_pic32mz_ef_sk/production/_ext/1697634946/drv_ethmac_lib.o
 .text.DRV_ETHMAC_LibTxGetBufferStatus
                0x00000000       0x84 build/udp_pic32mz_ef_sk/production/_ext/1697634946/drv_ethmac_lib.o
 .text.DRV_ETHMAC_LibRxGetBuffer
                0x00000000       0x3c build/udp_pic32mz_ef_sk/production/_ext/1697634946/drv_ethmac_lib.o
 .text          0x00000000        0x0 build/udp_pic32mz_ef_sk/production/_ext/521481140/drv_ethphy.o
 .data          0x00000000        0x0 build/udp_pic32mz_ef_sk/production/_ext/521481140/drv_ethphy.o
 .reginfo       0x00000000       0x18 build/udp_pic32mz_ef_sk/production/_ext/521481140/drv_ethphy.o
 .text          0x00000000        0x0 build/udp_pic32mz_ef_sk/production/_ext/521481140/drv_extphy_smsc8740.o
 .data          0x00000000        0x0 build/udp_pic32mz_ef_sk/production/_ext/521481140/drv_extphy_smsc8740.o
 .bss           0x00000000        0x0 build/udp_pic32mz_ef_sk/production/_ext/521481140/drv_extphy_smsc8740.o
 .reginfo       0x00000000       0x18 build/udp_pic32mz_ef_sk/production/_ext/521481140/drv_extphy_smsc8740.o
 .text          0x00000000        0x0 build/udp_pic32mz_ef_sk/production/_ext/941160041/drv_tmr.o
 .data          0x00000000        0x0 build/udp_pic32mz_ef_sk/production/_ext/941160041/drv_tmr.o
 .reginfo       0x00000000       0x18 build/udp_pic32mz_ef_sk/production/_ext/941160041/drv_tmr.o
 .text.DRV_TMR_Deinitialize
                0x00000000       0x54 build/udp_pic32mz_ef_sk/production/_ext/941160041/drv_tmr.o
 .text.DRV_TMR_Status
                0x00000000       0x28 build/udp_pic32mz_ef_sk/production/_ext/941160041/drv_tmr.o
 .text.DRV_TMR_ClientStatus
                0x00000000       0x44 build/udp_pic32mz_ef_sk/production/_ext/941160041/drv_tmr.o
 .text.DRV_TMR_CounterValueSet
                0x00000000       0x60 build/udp_pic32mz_ef_sk/production/_ext/941160041/drv_tmr.o
 .text.DRV_TMR_CounterValueGet
                0x00000000       0x78 build/udp_pic32mz_ef_sk/production/_ext/941160041/drv_tmr.o
 .text.DRV_TMR_CounterClear
                0x00000000       0x58 build/udp_pic32mz_ef_sk/production/_ext/941160041/drv_tmr.o
 .text.DRV_TMR_AlarmDisable
                0x00000000       0x64 build/udp_pic32mz_ef_sk/production/_ext/941160041/drv_tmr.o
 .text.DRV_TMR_AlarmPeriodSet
                0x00000000       0xa4 build/udp_pic32mz_ef_sk/production/_ext/941160041/drv_tmr.o
 .text.DRV_TMR_AlarmPeriodGet
                0x00000000       0x3c build/udp_pic32mz_ef_sk/production/_ext/941160041/drv_tmr.o
 .text.DRV_TMR_AlarmDeregister
                0x00000000       0x60 build/udp_pic32mz_ef_sk/production/_ext/941160041/drv_tmr.o
 .text.DRV_TMR_Stop
                0x00000000       0x7c build/udp_pic32mz_ef_sk/production/_ext/941160041/drv_tmr.o
 .text.DRV_TMR_AlarmHasElapsed
                0x00000000       0x3c build/udp_pic32mz_ef_sk/production/_ext/941160041/drv_tmr.o
 .text.DRV_TMR_OperationModeGet
                0x00000000       0x3c build/udp_pic32mz_ef_sk/production/_ext/941160041/drv_tmr.o
 .text.DRV_TMR_DividerRangeGet
                0x00000000       0x74 build/udp_pic32mz_ef_sk/production/_ext/941160041/drv_tmr.o
 .text.DRV_TMR_GateModeSet
                0x00000000       0x6c build/udp_pic32mz_ef_sk/production/_ext/941160041/drv_tmr.o
 .text.DRV_TMR_GateModeClear
                0x00000000       0x6c build/udp_pic32mz_ef_sk/production/_ext/941160041/drv_tmr.o
 .text.DRV_TMR_ClockSet
                0x00000000       0xa4 build/udp_pic32mz_ef_sk/production/_ext/941160041/drv_tmr.o
 .text.DRV_TMR_PrescalerGet
                0x00000000      0x130 build/udp_pic32mz_ef_sk/production/_ext/941160041/drv_tmr.o
 .text          0x00000000        0x0 build/udp_pic32mz_ef_sk/production/_ext/1042686532/sys_int_pic32.o
 .data          0x00000000        0x0 build/udp_pic32mz_ef_sk/production/_ext/1042686532/sys_int_pic32.o
 .bss           0x00000000        0x0 build/udp_pic32mz_ef_sk/production/_ext/1042686532/sys_int_pic32.o
 .reginfo       0x00000000       0x18 build/udp_pic32mz_ef_sk/production/_ext/1042686532/sys_int_pic32.o
 .text.SYS_INT_Disable
                0x00000000       0x20 build/udp_pic32mz_ef_sk/production/_ext/1042686532/sys_int_pic32.o
 .text.SYS_INT_ExternalInterruptTriggerSet
                0x00000000       0x28 build/udp_pic32mz_ef_sk/production/_ext/1042686532/sys_int_pic32.o
 .text          0x00000000        0x0 build/udp_pic32mz_ef_sk/production/_ext/470001640/sys_random.o
 .data          0x00000000        0x0 build/udp_pic32mz_ef_sk/production/_ext/470001640/sys_random.o
 .reginfo       0x00000000       0x18 build/udp_pic32mz_ef_sk/production/_ext/470001640/sys_random.o
 .text.SYS_RANDOM_Deinitialize
                0x00000000        0xc build/udp_pic32mz_ef_sk/production/_ext/470001640/sys_random.o
 .text.SYS_RANDOM_PseudoSeedSet
                0x00000000       0x1c build/udp_pic32mz_ef_sk/production/_ext/470001640/sys_random.o
 COMMON         0x00000000      0x108 build/udp_pic32mz_ef_sk/production/_ext/470001640/sys_random.o
 .text          0x00000000        0x0 build/udp_pic32mz_ef_sk/production/_ext/2110151058/sys_tmr.o
 .data          0x00000000        0x0 build/udp_pic32mz_ef_sk/production/_ext/2110151058/sys_tmr.o
 .reginfo       0x00000000       0x18 build/udp_pic32mz_ef_sk/production/_ext/2110151058/sys_tmr.o
 .text.SYS_TMR_Deinitialize
                0x00000000       0xd0 build/udp_pic32mz_ef_sk/production/_ext/2110151058/sys_tmr.o
 .text.SYS_TMR_Status
                0x00000000       0x20 build/udp_pic32mz_ef_sk/production/_ext/2110151058/sys_tmr.o
 .text.SYS_TMR_ObjectCreate
                0x00000000       0x1c build/udp_pic32mz_ef_sk/production/_ext/2110151058/sys_tmr.o
 .text.SYS_TMR_ObjectReload
                0x00000000       0xb4 build/udp_pic32mz_ef_sk/production/_ext/2110151058/sys_tmr.o
 .text.SYS_TMR_ObjectCountGet
                0x00000000       0xe4 build/udp_pic32mz_ef_sk/production/_ext/2110151058/sys_tmr.o
 .text.SYS_TMR_CallbackSingle
                0x00000000       0x1c build/udp_pic32mz_ef_sk/production/_ext/2110151058/sys_tmr.o
 .text.SYS_TMR_DelayMS
                0x00000000       0x24 build/udp_pic32mz_ef_sk/production/_ext/2110151058/sys_tmr.o
 .text.SYS_TMR_DelayStatusGet
                0x00000000       0x20 build/udp_pic32mz_ef_sk/production/_ext/2110151058/sys_tmr.o
 .text.SYS_TMR_TickCountGetLong
                0x00000000       0x4c build/udp_pic32mz_ef_sk/production/_ext/2110151058/sys_tmr.o
 .text.SYS_TMR_SystemCountFrequencyGet
                0x00000000       0x24 build/udp_pic32mz_ef_sk/production/_ext/2110151058/sys_tmr.o
 .text.SYS_TMR_SystemCountGet
                0x00000000       0xec build/udp_pic32mz_ef_sk/production/_ext/2110151058/sys_tmr.o
 .text          0x00000000        0x0 build/udp_pic32mz_ef_sk/production/_ext/1886247299/helpers.o
 .data          0x00000000        0x0 build/udp_pic32mz_ef_sk/production/_ext/1886247299/helpers.o
 .bss           0x00000000        0x0 build/udp_pic32mz_ef_sk/production/_ext/1886247299/helpers.o
 .reginfo       0x00000000       0x18 build/udp_pic32mz_ef_sk/production/_ext/1886247299/helpers.o
 .text.uitoa    0x00000000       0x94 build/udp_pic32mz_ef_sk/production/_ext/1886247299/helpers.o
 .text.btohexa_high
                0x00000000       0x1c build/udp_pic32mz_ef_sk/production/_ext/1886247299/helpers.o
 .text.btohexa_low
                0x00000000       0x1c build/udp_pic32mz_ef_sk/production/_ext/1886247299/helpers.o
 .text.strncpy_m
                0x00000000       0xd8 build/udp_pic32mz_ef_sk/production/_ext/1886247299/helpers.o
 .text          0x00000000        0x0 build/udp_pic32mz_ef_sk/production/_ext/1164207549/ipv4.o
 .data          0x00000000        0x0 build/udp_pic32mz_ef_sk/production/_ext/1164207549/ipv4.o
 .reginfo       0x00000000       0x18 build/udp_pic32mz_ef_sk/production/_ext/1164207549/ipv4.o
 .text.IPv4RegisterFilter
                0x00000000       0x60 build/udp_pic32mz_ef_sk/production/_ext/1164207549/ipv4.o
 .text.Ipv4DeRegisterFilter
                0x00000000       0x44 build/udp_pic32mz_ef_sk/production/_ext/1164207549/ipv4.o
 .text.TCPIP_IPV4_PacketFilterSet
                0x00000000       0x10 build/udp_pic32mz_ef_sk/production/_ext/1164207549/ipv4.o
 .text.TCPIP_IPV4_PacketFilterClear
                0x00000000       0x14 build/udp_pic32mz_ef_sk/production/_ext/1164207549/ipv4.o
 .text.TCPIP_IPV4_MacPacketSwitchTxToRx
                0x00000000       0xe4 build/udp_pic32mz_ef_sk/production/_ext/1164207549/ipv4.o
 .text.TCPIP_IPV4_MacPacketTransmit
                0x00000000       0xc0 build/udp_pic32mz_ef_sk/production/_ext/1164207549/ipv4.o
 .text.TCPIP_IPV4_PacketAlloc
                0x00000000       0xc8 build/udp_pic32mz_ef_sk/production/_ext/1164207549/ipv4.o
 .text.TCPIP_IPV4_PacketOptionFieldSet
                0x00000000       0x48 build/udp_pic32mz_ef_sk/production/_ext/1164207549/ipv4.o
 .text.TCPIP_IPV4_PacketOptionListGet
                0x00000000       0x90 build/udp_pic32mz_ef_sk/production/_ext/1164207549/ipv4.o
 .text.TCPIP_IPV4_PacketOptionGet
                0x00000000       0xd8 build/udp_pic32mz_ef_sk/production/_ext/1164207549/ipv4.o
 .text.TCPIP_IPV4_MaxDatagramDataSizeGet
                0x00000000       0x2c build/udp_pic32mz_ef_sk/production/_ext/1164207549/ipv4.o
 .text.TCPIP_IPV4_IsFragmentationEnabled
                0x00000000        0x8 build/udp_pic32mz_ef_sk/production/_ext/1164207549/ipv4.o
 .text          0x00000000        0x0 build/udp_pic32mz_ef_sk/production/_ext/1164207549/udp.o
 .data          0x00000000        0x0 build/udp_pic32mz_ef_sk/production/_ext/1164207549/udp.o
 .bss           0x00000000        0x0 build/udp_pic32mz_ef_sk/production/_ext/1164207549/udp.o
 .reginfo       0x00000000       0x18 build/udp_pic32mz_ef_sk/production/_ext/1164207549/udp.o
 .text.TCPIP_UDP_OpenClientSkt
                0x00000000       0x64 build/udp_pic32mz_ef_sk/production/_ext/1164207549/udp.o
 .text.TCPIP_UDP_ClientOpen
                0x00000000       0x20 build/udp_pic32mz_ef_sk/production/_ext/1164207549/udp.o
 .text.TCPIP_UDP_BcastIPV4AddressSet
                0x00000000       0xb8 build/udp_pic32mz_ef_sk/production/_ext/1164207549/udp.o
 .text.TCPIP_UDP_Disconnect
                0x00000000       0xf4 build/udp_pic32mz_ef_sk/production/_ext/1164207549/udp.o
 .text.TCPIP_UDP_SocketInfoGet
                0x00000000       0xc8 build/udp_pic32mz_ef_sk/production/_ext/1164207549/udp.o
 .text.TCPIP_UDP_TxOffsetSet
                0x00000000       0x90 build/udp_pic32mz_ef_sk/production/_ext/1164207549/udp.o
 .text.TCPIP_UDP_TxPointerGet
                0x00000000       0x48 build/udp_pic32mz_ef_sk/production/_ext/1164207549/udp.o
 .text.TCPIP_UDP_TxPutIsReady
                0x00000000       0x1c build/udp_pic32mz_ef_sk/production/_ext/1164207549/udp.o
 .text.TCPIP_UDP_Put
                0x00000000       0x28 build/udp_pic32mz_ef_sk/production/_ext/1164207549/udp.o
 .text.TCPIP_UDP_StringPut
                0x00000000       0x64 build/udp_pic32mz_ef_sk/production/_ext/1164207549/udp.o
 .text.TCPIP_UDP_TxCountGet
                0x00000000       0x58 build/udp_pic32mz_ef_sk/production/_ext/1164207549/udp.o
 .text.TCPIP_UDP_RxOffsetSet
                0x00000000       0x88 build/udp_pic32mz_ef_sk/production/_ext/1164207549/udp.o
 .text.TCPIP_UDP_Get
                0x00000000       0x20 build/udp_pic32mz_ef_sk/production/_ext/1164207549/udp.o
 .text.TCPIP_UDP_Discard
                0x00000000       0x50 build/udp_pic32mz_ef_sk/production/_ext/1164207549/udp.o
 .text.TCPIP_UDP_SocketNetSet
                0x00000000       0x70 build/udp_pic32mz_ef_sk/production/_ext/1164207549/udp.o
 .text.TCPIP_UDP_SocketNetGet
                0x00000000       0x28 build/udp_pic32mz_ef_sk/production/_ext/1164207549/udp.o
 .text.TCPIP_UDP_SourceIPAddressSet
                0x00000000       0x88 build/udp_pic32mz_ef_sk/production/_ext/1164207549/udp.o
 .text.TCPIP_UDP_Bind
                0x00000000      0x230 build/udp_pic32mz_ef_sk/production/_ext/1164207549/udp.o
 .text.TCPIP_UDP_OptionsSet
                0x00000000      0x2cc build/udp_pic32mz_ef_sk/production/_ext/1164207549/udp.o
 .text.TCPIP_UDP_OptionsGet
                0x00000000      0x1c8 build/udp_pic32mz_ef_sk/production/_ext/1164207549/udp.o
 .text.TCPIP_UDP_DestinationIPAddressSet
                0x00000000       0x98 build/udp_pic32mz_ef_sk/production/_ext/1164207549/udp.o
 .text.TCPIP_UDP_RemoteBind
                0x00000000      0x120 build/udp_pic32mz_ef_sk/production/_ext/1164207549/udp.o
 .text.TCPIP_UDP_DestinationPortSet
                0x00000000       0x4c build/udp_pic32mz_ef_sk/production/_ext/1164207549/udp.o
 .text.TCPIP_UDP_SetSplitPayload
                0x00000000       0xc4 build/udp_pic32mz_ef_sk/production/_ext/1164207549/udp.o
 .text.TCPIP_UDP_SignalHandlerRegister
                0x00000000       0x68 build/udp_pic32mz_ef_sk/production/_ext/1164207549/udp.o
 .text.TCPIP_UDP_SignalHandlerDeregister
                0x00000000       0x4c build/udp_pic32mz_ef_sk/production/_ext/1164207549/udp.o
 .text.TCPIP_UDP_SocketsNumberGet
                0x00000000        0x8 build/udp_pic32mz_ef_sk/production/_ext/1164207549/udp.o
 .text          0x00000000        0x0 build/udp_pic32mz_ef_sk/production/_ext/1164207549/tcpip_heap_alloc.o
 .data          0x00000000        0x0 build/udp_pic32mz_ef_sk/production/_ext/1164207549/tcpip_heap_alloc.o
 .bss           0x00000000        0x0 build/udp_pic32mz_ef_sk/production/_ext/1164207549/tcpip_heap_alloc.o
 .reginfo       0x00000000       0x18 build/udp_pic32mz_ef_sk/production/_ext/1164207549/tcpip_heap_alloc.o
 .text._TCPIP_HEAP_PointerMapCached
                0x00000000       0x24 build/udp_pic32mz_ef_sk/production/_ext/1164207549/tcpip_heap_alloc.o
 .text          0x00000000        0x0 build/udp_pic32mz_ef_sk/production/_ext/1164207549/tcpip_heap_internal.o
 .data          0x00000000        0x0 build/udp_pic32mz_ef_sk/production/_ext/1164207549/tcpip_heap_internal.o
 .bss           0x00000000        0x0 build/udp_pic32mz_ef_sk/production/_ext/1164207549/tcpip_heap_internal.o
 .reginfo       0x00000000       0x18 build/udp_pic32mz_ef_sk/production/_ext/1164207549/tcpip_heap_internal.o
 .text          0x00000000        0x0 build/udp_pic32mz_ef_sk/production/_ext/1164207549/arp.o
 .data          0x00000000        0x0 build/udp_pic32mz_ef_sk/production/_ext/1164207549/arp.o
 .reginfo       0x00000000       0x18 build/udp_pic32mz_ef_sk/production/_ext/1164207549/arp.o
 .text._ARPRemoveEntry
                0x00000000       0x70 build/udp_pic32mz_ef_sk/production/_ext/1164207549/arp.o
 .text.TCPIP_ARP_Resolve
                0x00000000       0x78 build/udp_pic32mz_ef_sk/production/_ext/1164207549/arp.o
 .text.TCPIP_ARP_Probe
                0x00000000       0x9c build/udp_pic32mz_ef_sk/production/_ext/1164207549/arp.o
 .text.TCPIP_ARP_EntrySet
                0x00000000      0x174 build/udp_pic32mz_ef_sk/production/_ext/1164207549/arp.o
 .text.TCPIP_ARP_EntryRemove
                0x00000000       0xcc build/udp_pic32mz_ef_sk/production/_ext/1164207549/arp.o
 .text.TCPIP_ARP_EntryRemoveNet
                0x00000000      0x1c8 build/udp_pic32mz_ef_sk/production/_ext/1164207549/arp.o
 .text.TCPIP_ARP_EntryRemoveAll
                0x00000000       0xe8 build/udp_pic32mz_ef_sk/production/_ext/1164207549/arp.o
 .text.TCPIP_ARP_EntryQuery
                0x00000000      0x110 build/udp_pic32mz_ef_sk/production/_ext/1164207549/arp.o
 .text.TCPIP_ARP_CacheEntriesNoGet
                0x00000000       0xd8 build/udp_pic32mz_ef_sk/production/_ext/1164207549/arp.o
 .text.TCPIP_ARP_CacheThresholdSet
                0x00000000       0xa8 build/udp_pic32mz_ef_sk/production/_ext/1164207549/arp.o
 .text          0x00000000        0x0 build/udp_pic32mz_ef_sk/production/_ext/1164207549/dhcp.o
 .data          0x00000000        0x0 build/udp_pic32mz_ef_sk/production/_ext/1164207549/dhcp.o
 .bss           0x00000000        0x0 build/udp_pic32mz_ef_sk/production/_ext/1164207549/dhcp.o
 .reginfo       0x00000000       0x18 build/udp_pic32mz_ef_sk/production/_ext/1164207549/dhcp.o
 .text.TCPIP_DHCP_IsEnabled
                0x00000000        0x8 build/udp_pic32mz_ef_sk/production/_ext/1164207549/dhcp.o
 .text.TCPIP_DHCP_IsActive
                0x00000000        0x8 build/udp_pic32mz_ef_sk/production/_ext/1164207549/dhcp.o
 .text.TCPIP_DHCP_Disable
                0x00000000        0x8 build/udp_pic32mz_ef_sk/production/_ext/1164207549/dhcp.o
 .text.TCPIP_DHCP_Enable
                0x00000000        0x8 build/udp_pic32mz_ef_sk/production/_ext/1164207549/dhcp.o
 .text.TCPIP_DHCP_Renew
                0x00000000        0x8 build/udp_pic32mz_ef_sk/production/_ext/1164207549/dhcp.o
 .text.TCPIP_DHCP_Request
                0x00000000        0x8 build/udp_pic32mz_ef_sk/production/_ext/1164207549/dhcp.o
 .text.TCPIP_DHCP_InfoGet
                0x00000000        0x8 build/udp_pic32mz_ef_sk/production/_ext/1164207549/dhcp.o
 .text          0x00000000        0x0 build/udp_pic32mz_ef_sk/production/_ext/1164207549/dns.o
 .data          0x00000000        0x0 build/udp_pic32mz_ef_sk/production/_ext/1164207549/dns.o
 .bss           0x00000000        0x0 build/udp_pic32mz_ef_sk/production/_ext/1164207549/dns.o
 .reginfo       0x00000000       0x18 build/udp_pic32mz_ef_sk/production/_ext/1164207549/dns.o
 .text.TCPIP_DNS_IsEnabled
                0x00000000        0x8 build/udp_pic32mz_ef_sk/production/_ext/1164207549/dns.o
 .text.TCPIP_DNS_Enable
                0x00000000        0x8 build/udp_pic32mz_ef_sk/production/_ext/1164207549/dns.o
 .text.TCPIP_DNS_Disable
                0x00000000        0x8 build/udp_pic32mz_ef_sk/production/_ext/1164207549/dns.o
 .text.TCPIP_DNS_Resolve
                0x00000000        0x8 build/udp_pic32mz_ef_sk/production/_ext/1164207549/dns.o
 .text.TCPIP_DNS_IsResolved
                0x00000000        0x8 build/udp_pic32mz_ef_sk/production/_ext/1164207549/dns.o
 .text.TCPIP_DNS_IsNameResolved
                0x00000000        0x8 build/udp_pic32mz_ef_sk/production/_ext/1164207549/dns.o
 .text.TCPIP_DNS_RemoveEntry
                0x00000000        0x8 build/udp_pic32mz_ef_sk/production/_ext/1164207549/dns.o
 .text.TCPIP_DNS_RemoveAll
                0x00000000        0x8 build/udp_pic32mz_ef_sk/production/_ext/1164207549/dns.o
 .text.TCPIP_DNS_ClientInfoGet
                0x00000000        0x8 build/udp_pic32mz_ef_sk/production/_ext/1164207549/dns.o
 .text.TCPIP_DNS_EntryQuery
                0x00000000        0x8 build/udp_pic32mz_ef_sk/production/_ext/1164207549/dns.o
 .text          0x00000000        0x0 build/udp_pic32mz_ef_sk/production/_ext/1164207549/hash_fnv.o
 .data          0x00000000        0x0 build/udp_pic32mz_ef_sk/production/_ext/1164207549/hash_fnv.o
 .bss           0x00000000        0x0 build/udp_pic32mz_ef_sk/production/_ext/1164207549/hash_fnv.o
 .reginfo       0x00000000       0x18 build/udp_pic32mz_ef_sk/production/_ext/1164207549/hash_fnv.o
 .text.fnv_32a_hash
                0x00000000       0x5c build/udp_pic32mz_ef_sk/production/_ext/1164207549/hash_fnv.o
 .text          0x00000000        0x0 build/udp_pic32mz_ef_sk/production/_ext/1164207549/oahash.o
 .data          0x00000000        0x0 build/udp_pic32mz_ef_sk/production/_ext/1164207549/oahash.o
 .bss           0x00000000        0x0 build/udp_pic32mz_ef_sk/production/_ext/1164207549/oahash.o
 .reginfo       0x00000000       0x18 build/udp_pic32mz_ef_sk/production/_ext/1164207549/oahash.o
 .text.TCPIP_OAHASH_EntryGet
                0x00000000       0x2c build/udp_pic32mz_ef_sk/production/_ext/1164207549/oahash.o
 .text          0x00000000        0x0 build/udp_pic32mz_ef_sk/production/_ext/1164207549/tcpip_helpers.o
 .data          0x00000000       0x28 build/udp_pic32mz_ef_sk/production/_ext/1164207549/tcpip_helpers.o
 .bss           0x00000000        0x0 build/udp_pic32mz_ef_sk/production/_ext/1164207549/tcpip_helpers.o
 .reginfo       0x00000000       0x18 build/udp_pic32mz_ef_sk/production/_ext/1164207549/tcpip_helpers.o
 .text._TCPIP_Helper_SecurePortEntry
                0x00000000       0x54 build/udp_pic32mz_ef_sk/production/_ext/1164207549/tcpip_helpers.o
 .text.TCPIP_Helper_IPAddressToString
                0x00000000       0x98 build/udp_pic32mz_ef_sk/production/_ext/1164207549/tcpip_helpers.o
 .text.TCPIP_Helper_StringToIPv6Address
                0x00000000      0x3f0 build/udp_pic32mz_ef_sk/production/_ext/1164207549/tcpip_helpers.o
 .text.TCPIP_Helper_IPv6AddressToString
                0x00000000      0x150 build/udp_pic32mz_ef_sk/production/_ext/1164207549/tcpip_helpers.o
 .text.TCPIP_Helper_IsPrivateAddress
                0x00000000       0x3c build/udp_pic32mz_ef_sk/production/_ext/1164207549/tcpip_helpers.o
 .text.TCPIP_Helper_MACAddressToString
                0x00000000       0x80 build/udp_pic32mz_ef_sk/production/_ext/1164207549/tcpip_helpers.o
 .text.TCPIP_Helper_PowerModeToString
                0x00000000       0x28 build/udp_pic32mz_ef_sk/production/_ext/1164207549/tcpip_helpers.o
 .text.TCPIP_Helper_Base64Decode
                0x00000000      0x1ac build/udp_pic32mz_ef_sk/production/_ext/1164207549/tcpip_helpers.o
 .text.TCPIP_Helper_Base64Encode
                0x00000000      0x190 build/udp_pic32mz_ef_sk/production/_ext/1164207549/tcpip_helpers.o
 .text.TCPIP_Helper_PacketCopy
                0x00000000      0x120 build/udp_pic32mz_ef_sk/production/_ext/1164207549/tcpip_helpers.o
 .text.TCPIP_Helper_FindCommonPrefix
                0x00000000       0xa4 build/udp_pic32mz_ef_sk/production/_ext/1164207549/tcpip_helpers.o
 .text.TCPIP_Helper_SingleListHeadAdd
                0x00000000       0x28 build/udp_pic32mz_ef_sk/production/_ext/1164207549/tcpip_helpers.o
 .text.TCPIP_Helper_SingleListMidAdd
                0x00000000       0x1c build/udp_pic32mz_ef_sk/production/_ext/1164207549/tcpip_helpers.o
 .text.TCPIP_Helper_SingleListNextRemove
                0x00000000       0x58 build/udp_pic32mz_ef_sk/production/_ext/1164207549/tcpip_helpers.o
 .text.TCPIP_Helper_SingleListFind
                0x00000000       0x48 build/udp_pic32mz_ef_sk/production/_ext/1164207549/tcpip_helpers.o
 .text.TCPIP_Helper_ProtectedSingleListHeadAdd
                0x00000000       0x88 build/udp_pic32mz_ef_sk/production/_ext/1164207549/tcpip_helpers.o
 .text.TCPIP_Helper_ProtectedSingleListMidAdd
                0x00000000       0x9c build/udp_pic32mz_ef_sk/production/_ext/1164207549/tcpip_helpers.o
 .text.TCPIP_Helper_ProtectedSingleListNextRemove
                0x00000000       0x94 build/udp_pic32mz_ef_sk/production/_ext/1164207549/tcpip_helpers.o
 .text.TCPIP_Helper_ProtectedSingleListAppend
                0x00000000       0x88 build/udp_pic32mz_ef_sk/production/_ext/1164207549/tcpip_helpers.o
 .text.TCPIP_Helper_DoubleListInitialize
                0x00000000       0x10 build/udp_pic32mz_ef_sk/production/_ext/1164207549/tcpip_helpers.o
 .text.TCPIP_Helper_DoubleListHeadAdd
                0x00000000       0x40 build/udp_pic32mz_ef_sk/production/_ext/1164207549/tcpip_helpers.o
 .text.TCPIP_Helper_DoubleListTailAdd
                0x00000000       0x44 build/udp_pic32mz_ef_sk/production/_ext/1164207549/tcpip_helpers.o
 .text.TCPIP_Helper_DoubleListMidAdd
                0x00000000       0x28 build/udp_pic32mz_ef_sk/production/_ext/1164207549/tcpip_helpers.o
 .text.TCPIP_Helper_DoubleListHeadRemove
                0x00000000       0x40 build/udp_pic32mz_ef_sk/production/_ext/1164207549/tcpip_helpers.o
 .text.TCPIP_Helper_DoubleListTailRemove
                0x00000000       0x40 build/udp_pic32mz_ef_sk/production/_ext/1164207549/tcpip_helpers.o
 .text.TCPIP_Helper_DoubleListMidRemove
                0x00000000       0x28 build/udp_pic32mz_ef_sk/production/_ext/1164207549/tcpip_helpers.o
 .text.TCPIP_Helper_DoubleListNodeRemove
                0x00000000       0x50 build/udp_pic32mz_ef_sk/production/_ext/1164207549/tcpip_helpers.o
 .text.TCPIP_Helper_DoubleListFind
                0x00000000       0x48 build/udp_pic32mz_ef_sk/production/_ext/1164207549/tcpip_helpers.o
 .text.TCPIP_Helper_ProtectedDoubleListInitialize
                0x00000000       0x50 build/udp_pic32mz_ef_sk/production/_ext/1164207549/tcpip_helpers.o
 .text.TCPIP_Helper_ProtectedDoubleListDeinitialize
                0x00000000       0x78 build/udp_pic32mz_ef_sk/production/_ext/1164207549/tcpip_helpers.o
 .text.TCPIP_Helper_ProtectedDoubleListHeadAdd
                0x00000000       0x88 build/udp_pic32mz_ef_sk/production/_ext/1164207549/tcpip_helpers.o
 .text.TCPIP_Helper_ProtectedDoubleListTailAdd
                0x00000000       0x88 build/udp_pic32mz_ef_sk/production/_ext/1164207549/tcpip_helpers.o
 .text.TCPIP_Helper_ProtectedDoubleListMidAdd
                0x00000000       0x98 build/udp_pic32mz_ef_sk/production/_ext/1164207549/tcpip_helpers.o
 .text.TCPIP_Helper_ProtectedDoubleListHeadRemove
                0x00000000       0x90 build/udp_pic32mz_ef_sk/production/_ext/1164207549/tcpip_helpers.o
 .text.TCPIP_Helper_ProtectedDoubleListTailRemove
                0x00000000       0x90 build/udp_pic32mz_ef_sk/production/_ext/1164207549/tcpip_helpers.o
 .text.TCPIP_Helper_ProtectedDoubleListMidRemove
                0x00000000       0x88 build/udp_pic32mz_ef_sk/production/_ext/1164207549/tcpip_helpers.o
 .text.TCPIP_Helper_ProtectedDoubleListNodeRemove
                0x00000000       0x88 build/udp_pic32mz_ef_sk/production/_ext/1164207549/tcpip_helpers.o
 .text.TCPIP_Helper_ProtectedDoubleListRemoveAll
                0x00000000       0x90 build/udp_pic32mz_ef_sk/production/_ext/1164207549/tcpip_helpers.o
 .text.TCPIP_Helper_ProtectedDoubleListLock
                0x00000000       0x58 build/udp_pic32mz_ef_sk/production/_ext/1164207549/tcpip_helpers.o
 .text.TCPIP_Helper_ProtectedDoubleListUnlock
                0x00000000       0x44 build/udp_pic32mz_ef_sk/production/_ext/1164207549/tcpip_helpers.o
 .text.TCPIP_Helper_TCPSecurePortGet
                0x00000000       0x30 build/udp_pic32mz_ef_sk/production/_ext/1164207549/tcpip_helpers.o
 .text.TCPIP_Helper_UDPSecurePortGet
                0x00000000       0x30 build/udp_pic32mz_ef_sk/production/_ext/1164207549/tcpip_helpers.o
 .text.TCPIP_Helper_SecurePortGetByIndex
                0x00000000       0x64 build/udp_pic32mz_ef_sk/production/_ext/1164207549/tcpip_helpers.o
 .text.TCPIP_Helper_SecurePortSet
                0x00000000       0xc8 build/udp_pic32mz_ef_sk/production/_ext/1164207549/tcpip_helpers.o
 .data          0x00000000        0x0 build/udp_pic32mz_ef_sk/production/_ext/1164207549/tcpip_helper_c32.o
 .bss           0x00000000        0x0 build/udp_pic32mz_ef_sk/production/_ext/1164207549/tcpip_helper_c32.o
 .reginfo       0x00000000       0x18 build/udp_pic32mz_ef_sk/production/_ext/1164207549/tcpip_helper_c32.o
 .text          0x00000000        0x0 build/udp_pic32mz_ef_sk/production/_ext/1164207549/tcpip_manager.o
 .data          0x00000000        0x0 build/udp_pic32mz_ef_sk/production/_ext/1164207549/tcpip_manager.o
 .reginfo       0x00000000       0x18 build/udp_pic32mz_ef_sk/production/_ext/1164207549/tcpip_manager.o
 .text._NetConfigStringToBuffer
                0x00000000       0xc8 build/udp_pic32mz_ef_sk/production/_ext/1164207549/tcpip_manager.o
 .text.TCPIP_STACK_InitializeDataGet
                0x00000000       0x58 build/udp_pic32mz_ef_sk/production/_ext/1164207549/tcpip_manager.o
 .text.TCPIP_STACK_NetDefaultGet
                0x00000000        0x8 build/udp_pic32mz_ef_sk/production/_ext/1164207549/tcpip_manager.o
 .text.TCPIP_STACK_NetDefaultSet
                0x00000000       0x2c build/udp_pic32mz_ef_sk/production/_ext/1164207549/tcpip_manager.o
 .text.TCPIP_STACK_NetMulticastGet
                0x00000000        0x8 build/udp_pic32mz_ef_sk/production/_ext/1164207549/tcpip_manager.o
 .text.TCPIP_STACK_NetMulticastSet
                0x00000000        0x8 build/udp_pic32mz_ef_sk/production/_ext/1164207549/tcpip_manager.o
 .text.TCPIP_STACK_MacToNet
                0x00000000       0x4c build/udp_pic32mz_ef_sk/production/_ext/1164207549/tcpip_manager.o
 .text.TCPIP_STACK_MacToNetIndex
                0x00000000       0x54 build/udp_pic32mz_ef_sk/production/_ext/1164207549/tcpip_manager.o
 .text.TCPIP_STACK_NetIndexGet
                0x00000000       0x18 build/udp_pic32mz_ef_sk/production/_ext/1164207549/tcpip_manager.o
 .text.TCPIP_STACK_MACIdToNet
                0x00000000       0x5c build/udp_pic32mz_ef_sk/production/_ext/1164207549/tcpip_manager.o
 .text.TCPIP_STACK_NetNameGet
                0x00000000       0x2c build/udp_pic32mz_ef_sk/production/_ext/1164207549/tcpip_manager.o
 .text.TCPIP_STACK_NetAliasNameGet
                0x00000000       0x8c build/udp_pic32mz_ef_sk/production/_ext/1164207549/tcpip_manager.o
 .text.TCPIP_STACK_MACObjectGet
                0x00000000       0x18 build/udp_pic32mz_ef_sk/production/_ext/1164207549/tcpip_manager.o
 .text.TCPIP_STACK_NetAddressGatewaySet
                0x00000000       0x30 build/udp_pic32mz_ef_sk/production/_ext/1164207549/tcpip_manager.o
 .text.TCPIP_STACK_NetAddressGateway
                0x00000000       0x28 build/udp_pic32mz_ef_sk/production/_ext/1164207549/tcpip_manager.o
 .text.TCPIP_STACK_NetAddressDnsPrimary
                0x00000000       0x28 build/udp_pic32mz_ef_sk/production/_ext/1164207549/tcpip_manager.o
 .text.TCPIP_STACK_NetAddressDnsSecond
                0x00000000       0x28 build/udp_pic32mz_ef_sk/production/_ext/1164207549/tcpip_manager.o
 .text.TCPIP_STACK_NetAddressDnsPrimarySet
                0x00000000       0x2c build/udp_pic32mz_ef_sk/production/_ext/1164207549/tcpip_manager.o
 .text.TCPIP_STACK_NetAddressDnsSecondSet
                0x00000000       0x30 build/udp_pic32mz_ef_sk/production/_ext/1164207549/tcpip_manager.o
 .text.TCPIP_STACK_NetAddressMacSet
                0x00000000       0x4c build/udp_pic32mz_ef_sk/production/_ext/1164207549/tcpip_manager.o
 .text.TCPIP_STACK_NetBIOSName
                0x00000000        0xc build/udp_pic32mz_ef_sk/production/_ext/1164207549/tcpip_manager.o
 .text.TCPIP_STACK_NetBiosNameSet
                0x00000000       0x8c build/udp_pic32mz_ef_sk/production/_ext/1164207549/tcpip_manager.o
 .text.TCPIP_STACK_NetMACIdGet
                0x00000000       0x28 build/udp_pic32mz_ef_sk/production/_ext/1164207549/tcpip_manager.o
 .text.TCPIP_STACK_NetMACStatisticsGet
                0x00000000       0x50 build/udp_pic32mz_ef_sk/production/_ext/1164207549/tcpip_manager.o
 .text.TCPIP_STACK_NetMACRegisterStatisticsGet
                0x00000000       0x50 build/udp_pic32mz_ef_sk/production/_ext/1164207549/tcpip_manager.o
 .text.TCPIP_STACK_ModuleConfigGet
                0x00000000       0x74 build/udp_pic32mz_ef_sk/production/_ext/1164207549/tcpip_manager.o
 .text.TCPIP_STACK_NetConfigGet
                0x00000000      0x104 build/udp_pic32mz_ef_sk/production/_ext/1164207549/tcpip_manager.o
 .text.TCPIP_STACK_NetConfigSet
                0x00000000      0x2dc build/udp_pic32mz_ef_sk/production/_ext/1164207549/tcpip_manager.o
 .text.TCPIP_STACK_StringToMACId
                0x00000000       0x9c build/udp_pic32mz_ef_sk/production/_ext/1164207549/tcpip_manager.o
 .text.TCPIP_STACK_NetHandleGet
                0x00000000       0x84 build/udp_pic32mz_ef_sk/production/_ext/1164207549/tcpip_manager.o
 .text.TCPIP_STACK_MACIdToString
                0x00000000       0x4c build/udp_pic32mz_ef_sk/production/_ext/1164207549/tcpip_manager.o
 .text.TCPIP_STACK_NetIsUp
                0x00000000       0x20 build/udp_pic32mz_ef_sk/production/_ext/1164207549/tcpip_manager.o
 .text.TCPIP_STACK_DNSServiceSelect
                0x00000000       0x14 build/udp_pic32mz_ef_sk/production/_ext/1164207549/tcpip_manager.o
 .text.TCPIP_STACK_AddressServiceSelect
                0x00000000       0x14 build/udp_pic32mz_ef_sk/production/_ext/1164207549/tcpip_manager.o
 .text.TCPIP_STACK_AddressServiceCanStart
                0x00000000       0x20 build/udp_pic32mz_ef_sk/production/_ext/1164207549/tcpip_manager.o
 .text.TCPIP_STACK_DNSServiceCanStart
                0x00000000       0x4c build/udp_pic32mz_ef_sk/production/_ext/1164207549/tcpip_manager.o
 .text._TCPIPStackAddressServiceIsRunning
                0x00000000        0xc build/udp_pic32mz_ef_sk/production/_ext/1164207549/tcpip_manager.o
 .text.TCPIP_STACK_EventsPendingGet
                0x00000000       0x4c build/udp_pic32mz_ef_sk/production/_ext/1164207549/tcpip_manager.o
 .text.TCPIP_STACK_NetStaticIPv6AddressGet
                0x00000000        0x8 build/udp_pic32mz_ef_sk/production/_ext/1164207549/tcpip_manager.o
 .text.TCPIP_STACK_NetDefaultIPv6GatewayGet
                0x00000000        0x8 build/udp_pic32mz_ef_sk/production/_ext/1164207549/tcpip_manager.o
 .text.TCPIP_STACK_NetworkAddressSet
                0x00000000       0x48 build/udp_pic32mz_ef_sk/production/_ext/1164207549/tcpip_manager.o
 .text.TCPIP_STACK_NetAddressSet
                0x00000000       0x48 build/udp_pic32mz_ef_sk/production/_ext/1164207549/tcpip_manager.o
 .text.TCPIP_STACK_AddressServiceEvent
                0x00000000       0x64 build/udp_pic32mz_ef_sk/production/_ext/1164207549/tcpip_manager.o
 .text.TCPIP_STACK_NetMask
                0x00000000       0x44 build/udp_pic32mz_ef_sk/production/_ext/1164207549/tcpip_manager.o
 .text.TCPIP_STACK_GatewayAddressSet
                0x00000000       0x18 build/udp_pic32mz_ef_sk/production/_ext/1164207549/tcpip_manager.o
 .text.TCPIP_STACK_PrimaryDNSAddressSet
                0x00000000       0x18 build/udp_pic32mz_ef_sk/production/_ext/1164207549/tcpip_manager.o
 .text.TCPIP_STACK_SecondaryDNSAddressSet
                0x00000000       0x18 build/udp_pic32mz_ef_sk/production/_ext/1164207549/tcpip_manager.o
 .text.TCPIP_STACK_AddressIsOfNetUp
                0x00000000       0x54 build/udp_pic32mz_ef_sk/production/_ext/1164207549/tcpip_manager.o
 .text.TCPIP_STACK_NetworkIsLinked
                0x00000000       0x30 build/udp_pic32mz_ef_sk/production/_ext/1164207549/tcpip_manager.o
 .text.TCPIP_STACK_NetIsLinked
                0x00000000       0x44 build/udp_pic32mz_ef_sk/production/_ext/1164207549/tcpip_manager.o
 .text.TCPIP_STACK_NetIsReady
                0x00000000       0x34 build/udp_pic32mz_ef_sk/production/_ext/1164207549/tcpip_manager.o
 .text.TCPIP_STACK_NetMACId
                0x00000000       0x18 build/udp_pic32mz_ef_sk/production/_ext/1164207549/tcpip_manager.o
 .text.TCPIP_STACK_NetToMAC
                0x00000000       0x18 build/udp_pic32mz_ef_sk/production/_ext/1164207549/tcpip_manager.o
 .text.TCPIP_STACK_NetAddressMac
                0x00000000       0x44 build/udp_pic32mz_ef_sk/production/_ext/1164207549/tcpip_manager.o
 .text._TCPIPStackSignalHandlerSetParams
                0x00000000       0x4c build/udp_pic32mz_ef_sk/production/_ext/1164207549/tcpip_manager.o
 .text._TCPIPStackModuleSignalRequest
                0x00000000       0x84 build/udp_pic32mz_ef_sk/production/_ext/1164207549/tcpip_manager.o
 .text.TCPIP_STACK_NetUp
                0x00000000       0xec build/udp_pic32mz_ef_sk/production/_ext/1164207549/tcpip_manager.o
 .text.TCPIP_STACK_NetDown
                0x00000000       0xb4 build/udp_pic32mz_ef_sk/production/_ext/1164207549/tcpip_manager.o
 .text.TCPIP_STACK_VersionGet
                0x00000000        0xc build/udp_pic32mz_ef_sk/production/_ext/1164207549/tcpip_manager.o
 .text.TCPIP_STACK_VersionStrGet
                0x00000000        0xc build/udp_pic32mz_ef_sk/production/_ext/1164207549/tcpip_manager.o
 .text.TCPIP_MODULE_SignalFunctionRegister
                0x00000000       0x50 build/udp_pic32mz_ef_sk/production/_ext/1164207549/tcpip_manager.o
 .text.TCPIP_MODULE_SignalFunctionDeregister
                0x00000000       0x1c build/udp_pic32mz_ef_sk/production/_ext/1164207549/tcpip_manager.o
 .text.TCPIP_MODULE_SignalGet
                0x00000000       0x50 build/udp_pic32mz_ef_sk/production/_ext/1164207549/tcpip_manager.o
 .text.TCPIP_STACK_HeapHandleGet
                0x00000000       0x20 build/udp_pic32mz_ef_sk/production/_ext/1164207549/tcpip_manager.o
 .text.TCPIP_STACK_HEAP_Size
                0x00000000       0x34 build/udp_pic32mz_ef_sk/production/_ext/1164207549/tcpip_manager.o
 .text.TCPIP_STACK_HEAP_MaxSize
                0x00000000       0x34 build/udp_pic32mz_ef_sk/production/_ext/1164207549/tcpip_manager.o
 .text.TCPIP_STACK_HEAP_FreeSize
                0x00000000       0x34 build/udp_pic32mz_ef_sk/production/_ext/1164207549/tcpip_manager.o
 .text.TCPIP_STACK_HEAP_LastError
                0x00000000       0x34 build/udp_pic32mz_ef_sk/production/_ext/1164207549/tcpip_manager.o
 .text._TCPIPStackHeapConfig
                0x00000000        0xc build/udp_pic32mz_ef_sk/production/_ext/1164207549/tcpip_manager.o
 .text.TCPIP_STACK_NetGetType
                0x00000000        0x8 build/udp_pic32mz_ef_sk/production/_ext/1164207549/tcpip_manager.o
 .text          0x00000000        0x0 build/udp_pic32mz_ef_sk/production/_ext/1164207549/tcpip_notify.o
 .data          0x00000000        0x0 build/udp_pic32mz_ef_sk/production/_ext/1164207549/tcpip_notify.o
 .bss           0x00000000        0x0 build/udp_pic32mz_ef_sk/production/_ext/1164207549/tcpip_notify.o
 .reginfo       0x00000000       0x18 build/udp_pic32mz_ef_sk/production/_ext/1164207549/tcpip_notify.o
 .text          0x00000000        0x0 build/udp_pic32mz_ef_sk/production/_ext/1164207549/tcpip_packet.o
 .data          0x00000000        0x0 build/udp_pic32mz_ef_sk/production/_ext/1164207549/tcpip_packet.o
 .bss           0x00000000        0x0 build/udp_pic32mz_ef_sk/production/_ext/1164207549/tcpip_packet.o
 .reginfo       0x00000000       0x18 build/udp_pic32mz_ef_sk/production/_ext/1164207549/tcpip_packet.o
 .text.TCPIP_PKT_SegmentAlloc
                0x00000000       0xb4 build/udp_pic32mz_ef_sk/production/_ext/1164207549/tcpip_packet.o
 .text.TCPIP_PKT_SegmentAppend
                0x00000000       0x30 build/udp_pic32mz_ef_sk/production/_ext/1164207549/tcpip_packet.o
 .text.TCPIP_PKT_SegmentFree
                0x00000000       0x50 build/udp_pic32mz_ef_sk/production/_ext/1164207549/tcpip_packet.o
 .text          0x00000000        0x0 c:/program files (x86)/microchip/xc32/v1.42/bin/bin/../../lib/gcc/pic32mx/4.8.3/../../../../pic32mx/lib/./proc/32MZ2048EFH144\processor.o
 .data          0x00000000        0x0 c:/program files (x86)/microchip/xc32/v1.42/bin/bin/../../lib/gcc/pic32mx/4.8.3/../../../../pic32mx/lib/./proc/32MZ2048EFH144\processor.o
 .bss           0x00000000        0x0 c:/program files (x86)/microchip/xc32/v1.42/bin/bin/../../lib/gcc/pic32mx/4.8.3/../../../../pic32mx/lib/./proc/32MZ2048EFH144\processor.o
 .reginfo       0x00000000       0x18 c:/program files (x86)/microchip/xc32/v1.42/bin/bin/../../lib/gcc/pic32mx/4.8.3/../../../../pic32mx/lib/./proc/32MZ2048EFH144\processor.o
 .text          0x00000000        0x0 c:/program files (x86)/microchip/xc32/v1.42/bin/bin/../../lib/gcc/pic32mx/4.8.3/../../../../pic32mx/lib/./proc/32MZ2048EFH144\vector_offset_init.o
 .data          0x00000000        0x0 c:/program files (x86)/microchip/xc32/v1.42/bin/bin/../../lib/gcc/pic32mx/4.8.3/../../../../pic32mx/lib/./proc/32MZ2048EFH144\vector_offset_init.o
 .bss           0x00000000        0x0 c:/program files (x86)/microchip/xc32/v1.42/bin/bin/../../lib/gcc/pic32mx/4.8.3/../../../../pic32mx/lib/./proc/32MZ2048EFH144\vector_offset_init.o
 .reginfo       0x00000000       0x18 c:/program files (x86)/microchip/xc32/v1.42/bin/bin/../../lib/gcc/pic32mx/4.8.3/../../../../pic32mx/lib/./proc/32MZ2048EFH144\vector_offset_init.o
 .text          0x00000000        0x0 c:/program files (x86)/microchip/xc32/v1.42/bin/bin/../../lib/gcc/pic32mx/4.8.3/../../../../pic32mx/lib/./proc/32MZ2048EFH144\default_isr_vectors.o
 .data          0x00000000        0x0 c:/program files (x86)/microchip/xc32/v1.42/bin/bin/../../lib/gcc/pic32mx/4.8.3/../../../../pic32mx/lib/./proc/32MZ2048EFH144\default_isr_vectors.o
 .bss           0x00000000        0x0 c:/program files (x86)/microchip/xc32/v1.42/bin/bin/../../lib/gcc/pic32mx/4.8.3/../../../../pic32mx/lib/./proc/32MZ2048EFH144\default_isr_vectors.o
 .reginfo       0x00000000       0x18 c:/program files (x86)/microchip/xc32/v1.42/bin/bin/../../lib/gcc/pic32mx/4.8.3/../../../../pic32mx/lib/./proc/32MZ2048EFH144\default_isr_vectors.o
 .discard       0x00000000        0x4 c:/program files (x86)/microchip/xc32/v1.42/bin/bin/../../lib/gcc/pic32mx/4.8.3/../../../../pic32mx/lib/./proc/32MZ2048EFH144\default_isr_vectors.o
 .data          0x00000000        0x0 c:/program files (x86)/microchip/xc32/v1.42/bin/bin/../../lib/gcc/pic32mx/4.8.3/../../../../pic32mx/lib/fpu64\pic32_software_reset.o
 .bss           0x00000000        0x0 c:/program files (x86)/microchip/xc32/v1.42/bin/bin/../../lib/gcc/pic32mx/4.8.3/../../../../pic32mx/lib/fpu64\pic32_software_reset.o
 .reginfo       0x00000000       0x18 c:/program files (x86)/microchip/xc32/v1.42/bin/bin/../../lib/gcc/pic32mx/4.8.3/../../../../pic32mx/lib/fpu64\pic32_software_reset.o
 .data          0x00000000        0x0 c:/program files (x86)/microchip/xc32/v1.42/bin/bin/../../lib/gcc/pic32mx/4.8.3/fpu64\libgcc.a(_udivdi3.o)
 .bss           0x00000000        0x0 c:/program files (x86)/microchip/xc32/v1.42/bin/bin/../../lib/gcc/pic32mx/4.8.3/fpu64\libgcc.a(_udivdi3.o)
 .reginfo       0x00000000       0x18 c:/program files (x86)/microchip/xc32/v1.42/bin/bin/../../lib/gcc/pic32mx/4.8.3/fpu64\libgcc.a(_udivdi3.o)
 .data          0x00000000        0x0 c:/program files (x86)/microchip/xc32/v1.42/bin/bin/../../lib/gcc/pic32mx/4.8.3/../../../../pic32mx/lib/fpu64\libpic32.a(memcmp.o)
 .bss           0x00000000        0x0 c:/program files (x86)/microchip/xc32/v1.42/bin/bin/../../lib/gcc/pic32mx/4.8.3/../../../../pic32mx/lib/fpu64\libpic32.a(memcmp.o)
 .reginfo       0x00000000       0x18 c:/program files (x86)/microchip/xc32/v1.42/bin/bin/../../lib/gcc/pic32mx/4.8.3/../../../../pic32mx/lib/fpu64\libpic32.a(memcmp.o)
 .data          0x00000000        0x0 c:/program files (x86)/microchip/xc32/v1.42/bin/bin/../../lib/gcc/pic32mx/4.8.3/../../../../pic32mx/lib/fpu64\libpic32.a(memcpy.o)
 .bss           0x00000000        0x0 c:/program files (x86)/microchip/xc32/v1.42/bin/bin/../../lib/gcc/pic32mx/4.8.3/../../../../pic32mx/lib/fpu64\libpic32.a(memcpy.o)
 .reginfo       0x00000000       0x18 c:/program files (x86)/microchip/xc32/v1.42/bin/bin/../../lib/gcc/pic32mx/4.8.3/../../../../pic32mx/lib/fpu64\libpic32.a(memcpy.o)
 .data          0x00000000        0x0 c:/program files (x86)/microchip/xc32/v1.42/bin/bin/../../lib/gcc/pic32mx/4.8.3/../../../../pic32mx/lib/fpu64\libpic32.a(memset.o)
 .bss           0x00000000        0x0 c:/program files (x86)/microchip/xc32/v1.42/bin/bin/../../lib/gcc/pic32mx/4.8.3/../../../../pic32mx/lib/fpu64\libpic32.a(memset.o)
 .reginfo       0x00000000       0x18 c:/program files (x86)/microchip/xc32/v1.42/bin/bin/../../lib/gcc/pic32mx/4.8.3/../../../../pic32mx/lib/fpu64\libpic32.a(memset.o)
 .data          0x00000000        0x0 c:/program files (x86)/microchip/xc32/v1.42/bin/bin/../../lib/gcc/pic32mx/4.8.3/../../../../pic32mx/lib/fpu64\libpic32.a(strcmp.o)
 .bss           0x00000000        0x0 c:/program files (x86)/microchip/xc32/v1.42/bin/bin/../../lib/gcc/pic32mx/4.8.3/../../../../pic32mx/lib/fpu64\libpic32.a(strcmp.o)
 .reginfo       0x00000000       0x18 c:/program files (x86)/microchip/xc32/v1.42/bin/bin/../../lib/gcc/pic32mx/4.8.3/../../../../pic32mx/lib/fpu64\libpic32.a(strcmp.o)
 .text          0x00000000      0x1a0 c:/program files (x86)/microchip/xc32/v1.42/bin/bin/../../lib/gcc/pic32mx/4.8.3/../../../../pic32mx/lib/fpu64\libpic32.a(strcpy.o)
 .data          0x00000000        0x0 c:/program files (x86)/microchip/xc32/v1.42/bin/bin/../../lib/gcc/pic32mx/4.8.3/../../../../pic32mx/lib/fpu64\libpic32.a(strcpy.o)
 .bss           0x00000000        0x0 c:/program files (x86)/microchip/xc32/v1.42/bin/bin/../../lib/gcc/pic32mx/4.8.3/../../../../pic32mx/lib/fpu64\libpic32.a(strcpy.o)
 .reginfo       0x00000000       0x18 c:/program files (x86)/microchip/xc32/v1.42/bin/bin/../../lib/gcc/pic32mx/4.8.3/../../../../pic32mx/lib/fpu64\libpic32.a(strcpy.o)
 .comment       0x00000000       0x1a c:/program files (x86)/microchip/xc32/v1.42/bin/bin/../../lib/gcc/pic32mx/4.8.3/../../../../pic32mx/lib/fpu64\libpic32.a(strcpy.o)
 .text          0x00000000      0x168 c:/program files (x86)/microchip/xc32/v1.42/bin/bin/../../lib/gcc/pic32mx/4.8.3/../../../../pic32mx/lib/fpu64\libpic32.a(strlen.o)
 .data          0x00000000        0x0 c:/program files (x86)/microchip/xc32/v1.42/bin/bin/../../lib/gcc/pic32mx/4.8.3/../../../../pic32mx/lib/fpu64\libpic32.a(strlen.o)
 .bss           0x00000000        0x0 c:/program files (x86)/microchip/xc32/v1.42/bin/bin/../../lib/gcc/pic32mx/4.8.3/../../../../pic32mx/lib/fpu64\libpic32.a(strlen.o)
 .reginfo       0x00000000       0x18 c:/program files (x86)/microchip/xc32/v1.42/bin/bin/../../lib/gcc/pic32mx/4.8.3/../../../../pic32mx/lib/fpu64\libpic32.a(strlen.o)
 .comment       0x00000000       0x1a c:/program files (x86)/microchip/xc32/v1.42/bin/bin/../../lib/gcc/pic32mx/4.8.3/../../../../pic32mx/lib/fpu64\libpic32.a(strlen.o)
 .text          0x00000000        0x0 c:/program files (x86)/microchip/xc32/v1.42/bin/bin/../../lib/gcc/pic32mx/4.8.3/../../../../pic32mx/lib/fpu64\libpic32.a(default-bootstrap-exception-handler.o)
 .data          0x00000000        0x0 c:/program files (x86)/microchip/xc32/v1.42/bin/bin/../../lib/gcc/pic32mx/4.8.3/../../../../pic32mx/lib/fpu64\libpic32.a(default-bootstrap-exception-handler.o)
 .bss           0x00000000        0x0 c:/program files (x86)/microchip/xc32/v1.42/bin/bin/../../lib/gcc/pic32mx/4.8.3/../../../../pic32mx/lib/fpu64\libpic32.a(default-bootstrap-exception-handler.o)
 .reginfo       0x00000000       0x18 c:/program files (x86)/microchip/xc32/v1.42/bin/bin/../../lib/gcc/pic32mx/4.8.3/../../../../pic32mx/lib/fpu64\libpic32.a(default-bootstrap-exception-handler.o)
 .text          0x00000000        0x0 c:/program files (x86)/microchip/xc32/v1.42/bin/bin/../../lib/gcc/pic32mx/4.8.3/../../../../pic32mx/lib/fpu64\libpic32.a(default-on-reset.o)
 .data          0x00000000        0x0 c:/program files (x86)/microchip/xc32/v1.42/bin/bin/../../lib/gcc/pic32mx/4.8.3/../../../../pic32mx/lib/fpu64\libpic32.a(default-on-reset.o)
 .bss           0x00000000        0x0 c:/program files (x86)/microchip/xc32/v1.42/bin/bin/../../lib/gcc/pic32mx/4.8.3/../../../../pic32mx/lib/fpu64\libpic32.a(default-on-reset.o)
 .reginfo       0x00000000       0x18 c:/program files (x86)/microchip/xc32/v1.42/bin/bin/../../lib/gcc/pic32mx/4.8.3/../../../../pic32mx/lib/fpu64\libpic32.a(default-on-reset.o)
 .text          0x00000000        0x0 c:/program files (x86)/microchip/xc32/v1.42/bin/bin/../../lib/gcc/pic32mx/4.8.3/../../../../pic32mx/lib/fpu64\libpic32.a(default-on-bootstrap.o)
 .data          0x00000000        0x0 c:/program files (x86)/microchip/xc32/v1.42/bin/bin/../../lib/gcc/pic32mx/4.8.3/../../../../pic32mx/lib/fpu64\libpic32.a(default-on-bootstrap.o)
 .bss           0x00000000        0x0 c:/program files (x86)/microchip/xc32/v1.42/bin/bin/../../lib/gcc/pic32mx/4.8.3/../../../../pic32mx/lib/fpu64\libpic32.a(default-on-bootstrap.o)
 .reginfo       0x00000000       0x18 c:/program files (x86)/microchip/xc32/v1.42/bin/bin/../../lib/gcc/pic32mx/4.8.3/../../../../pic32mx/lib/fpu64\libpic32.a(default-on-bootstrap.o)
 .data          0x00000000        0x0 c:/program files (x86)/microchip/xc32/v1.42/bin/bin/../../lib/gcc/pic32mx/4.8.3/../../../../pic32mx/lib/fpu64\libpic32.a(default-nmi-handler.o)
 .bss           0x00000000        0x0 c:/program files (x86)/microchip/xc32/v1.42/bin/bin/../../lib/gcc/pic32mx/4.8.3/../../../../pic32mx/lib/fpu64\libpic32.a(default-nmi-handler.o)
 .reginfo       0x00000000       0x18 c:/program files (x86)/microchip/xc32/v1.42/bin/bin/../../lib/gcc/pic32mx/4.8.3/../../../../pic32mx/lib/fpu64\libpic32.a(default-nmi-handler.o)
 .text          0x00000000        0x0 c:/program files (x86)/microchip/xc32/v1.42/bin/bin/../../lib/gcc/pic32mx/4.8.3/../../../../pic32mx/lib/fpu64\libpic32.a(pic32_init_cache.o)
 .data          0x00000000        0x0 c:/program files (x86)/microchip/xc32/v1.42/bin/bin/../../lib/gcc/pic32mx/4.8.3/../../../../pic32mx/lib/fpu64\libpic32.a(pic32_init_cache.o)
 .bss           0x00000000        0x0 c:/program files (x86)/microchip/xc32/v1.42/bin/bin/../../lib/gcc/pic32mx/4.8.3/../../../../pic32mx/lib/fpu64\libpic32.a(pic32_init_cache.o)
 .reginfo       0x00000000       0x18 c:/program files (x86)/microchip/xc32/v1.42/bin/bin/../../lib/gcc/pic32mx/4.8.3/../../../../pic32mx/lib/fpu64\libpic32.a(pic32_init_cache.o)
 .cache_init.pic32_size_cache
                0x00000000       0x58 c:/program files (x86)/microchip/xc32/v1.42/bin/bin/../../lib/gcc/pic32mx/4.8.3/../../../../pic32mx/lib/fpu64\libpic32.a(pic32_init_cache.o)
 .text          0x00000000        0x0 c:/program files (x86)/microchip/xc32/v1.42/bin/bin/../../lib/gcc/pic32mx/4.8.3/../../../../pic32mx/lib/fpu64\libpic32.a(pic32_init_tlb_ebi_sqi.o)
 .data          0x00000000        0x0 c:/program files (x86)/microchip/xc32/v1.42/bin/bin/../../lib/gcc/pic32mx/4.8.3/../../../../pic32mx/lib/fpu64\libpic32.a(pic32_init_tlb_ebi_sqi.o)
 .bss           0x00000000        0x0 c:/program files (x86)/microchip/xc32/v1.42/bin/bin/../../lib/gcc/pic32mx/4.8.3/../../../../pic32mx/lib/fpu64\libpic32.a(pic32_init_tlb_ebi_sqi.o)
 .reginfo       0x00000000       0x18 c:/program files (x86)/microchip/xc32/v1.42/bin/bin/../../lib/gcc/pic32mx/4.8.3/../../../../pic32mx/lib/fpu64\libpic32.a(pic32_init_tlb_ebi_sqi.o)
 .text          0x00000000        0x0 c:/program files (x86)/microchip/xc32/v1.42/bin/bin/../../lib/gcc/pic32mx/4.8.3/../../../../pic32mx/lib/fpu64\libpic32.a(general-exception.o)
 .data          0x00000000        0x0 c:/program files (x86)/microchip/xc32/v1.42/bin/bin/../../lib/gcc/pic32mx/4.8.3/../../../../pic32mx/lib/fpu64\libpic32.a(general-exception.o)
 .bss           0x00000000        0x0 c:/program files (x86)/microchip/xc32/v1.42/bin/bin/../../lib/gcc/pic32mx/4.8.3/../../../../pic32mx/lib/fpu64\libpic32.a(general-exception.o)
 .reginfo       0x00000000       0x18 c:/program files (x86)/microchip/xc32/v1.42/bin/bin/../../lib/gcc/pic32mx/4.8.3/../../../../pic32mx/lib/fpu64\libpic32.a(general-exception.o)
 .text          0x00000000        0x0 c:/program files (x86)/microchip/xc32/v1.42/bin/bin/../../lib/gcc/pic32mx/4.8.3/../../../../pic32mx/lib/fpu64\libpic32.a(cache-err-exception.o)
 .data          0x00000000        0x0 c:/program files (x86)/microchip/xc32/v1.42/bin/bin/../../lib/gcc/pic32mx/4.8.3/../../../../pic32mx/lib/fpu64\libpic32.a(cache-err-exception.o)
 .bss           0x00000000        0x0 c:/program files (x86)/microchip/xc32/v1.42/bin/bin/../../lib/gcc/pic32mx/4.8.3/../../../../pic32mx/lib/fpu64\libpic32.a(cache-err-exception.o)
 .reginfo       0x00000000       0x18 c:/program files (x86)/microchip/xc32/v1.42/bin/bin/../../lib/gcc/pic32mx/4.8.3/../../../../pic32mx/lib/fpu64\libpic32.a(cache-err-exception.o)
 .text          0x00000000        0x0 c:/program files (x86)/microchip/xc32/v1.42/bin/bin/../../lib/gcc/pic32mx/4.8.3/../../../../pic32mx/lib/fpu64\libpic32.a(simple-tlb-refill-exception.o)
 .data          0x00000000        0x0 c:/program files (x86)/microchip/xc32/v1.42/bin/bin/../../lib/gcc/pic32mx/4.8.3/../../../../pic32mx/lib/fpu64\libpic32.a(simple-tlb-refill-exception.o)
 .bss           0x00000000        0x0 c:/program files (x86)/microchip/xc32/v1.42/bin/bin/../../lib/gcc/pic32mx/4.8.3/../../../../pic32mx/lib/fpu64\libpic32.a(simple-tlb-refill-exception.o)
 .reginfo       0x00000000       0x18 c:/program files (x86)/microchip/xc32/v1.42/bin/bin/../../lib/gcc/pic32mx/4.8.3/../../../../pic32mx/lib/fpu64\libpic32.a(simple-tlb-refill-exception.o)
 .text          0x00000000        0x0 c:/program files (x86)/microchip/xc32/v1.42/bin/bin/../../lib/gcc/pic32mx/4.8.3/../../../../pic32mx/lib/fpu64\libpic32.a(defaultinterrupt.o)
 .data          0x00000000        0x0 c:/program files (x86)/microchip/xc32/v1.42/bin/bin/../../lib/gcc/pic32mx/4.8.3/../../../../pic32mx/lib/fpu64\libpic32.a(defaultinterrupt.o)
 .bss           0x00000000        0x0 c:/program files (x86)/microchip/xc32/v1.42/bin/bin/../../lib/gcc/pic32mx/4.8.3/../../../../pic32mx/lib/fpu64\libpic32.a(defaultinterrupt.o)
 .reginfo       0x00000000       0x18 c:/program files (x86)/microchip/xc32/v1.42/bin/bin/../../lib/gcc/pic32mx/4.8.3/../../../../pic32mx/lib/fpu64\libpic32.a(defaultinterrupt.o)
 .text          0x00000000        0x0 c:/program files (x86)/microchip/xc32/v1.42/bin/bin/../../lib/gcc/pic32mx/4.8.3/../../../../pic32mx/lib/fpu64\libpic32.a(default-cache-err-exception-handler.o)
 .data          0x00000000        0x0 c:/program files (x86)/microchip/xc32/v1.42/bin/bin/../../lib/gcc/pic32mx/4.8.3/../../../../pic32mx/lib/fpu64\libpic32.a(default-cache-err-exception-handler.o)
 .bss           0x00000000        0x0 c:/program files (x86)/microchip/xc32/v1.42/bin/bin/../../lib/gcc/pic32mx/4.8.3/../../../../pic32mx/lib/fpu64\libpic32.a(default-cache-err-exception-handler.o)
 .reginfo       0x00000000       0x18 c:/program files (x86)/microchip/xc32/v1.42/bin/bin/../../lib/gcc/pic32mx/4.8.3/../../../../pic32mx/lib/fpu64\libpic32.a(default-cache-err-exception-handler.o)
 .text          0x00000000        0x0 c:/program files (x86)/microchip/xc32/v1.42/bin/bin/../../lib/gcc/pic32mx/4.8.3/../../../../pic32mx/lib/fpu64\libpic32.a(default-simple-tlb-refill-exception-handler.o)
 .data          0x00000000        0x0 c:/program files (x86)/microchip/xc32/v1.42/bin/bin/../../lib/gcc/pic32mx/4.8.3/../../../../pic32mx/lib/fpu64\libpic32.a(default-simple-tlb-refill-exception-handler.o)
 .bss           0x00000000        0x0 c:/program files (x86)/microchip/xc32/v1.42/bin/bin/../../lib/gcc/pic32mx/4.8.3/../../../../pic32mx/lib/fpu64\libpic32.a(default-simple-tlb-refill-exception-handler.o)
 .reginfo       0x00000000       0x18 c:/program files (x86)/microchip/xc32/v1.42/bin/bin/../../lib/gcc/pic32mx/4.8.3/../../../../pic32mx/lib/fpu64\libpic32.a(default-simple-tlb-refill-exception-handler.o)
 .text          0x00000000        0x0 c:/program files (x86)/microchip/xc32/v1.42/bin/bin/../../lib/gcc/pic32mx/4.8.3/../../../../pic32mx/lib/fpu64\libc.a(atoi.o)
 .data          0x00000000        0x0 c:/program files (x86)/microchip/xc32/v1.42/bin/bin/../../lib/gcc/pic32mx/4.8.3/../../../../pic32mx/lib/fpu64\libc.a(atoi.o)
 .bss           0x00000000        0x0 c:/program files (x86)/microchip/xc32/v1.42/bin/bin/../../lib/gcc/pic32mx/4.8.3/../../../../pic32mx/lib/fpu64\libc.a(atoi.o)
 .reginfo       0x00000000       0x18 c:/program files (x86)/microchip/xc32/v1.42/bin/bin/../../lib/gcc/pic32mx/4.8.3/../../../../pic32mx/lib/fpu64\libc.a(atoi.o)
 .text          0x00000000        0x0 c:/program files (x86)/microchip/xc32/v1.42/bin/bin/../../lib/gcc/pic32mx/4.8.3/../../../../pic32mx/lib/fpu64\libc.a(calloc.o)
 .data          0x00000000        0x0 c:/program files (x86)/microchip/xc32/v1.42/bin/bin/../../lib/gcc/pic32mx/4.8.3/../../../../pic32mx/lib/fpu64\libc.a(calloc.o)
 .bss           0x00000000        0x0 c:/program files (x86)/microchip/xc32/v1.42/bin/bin/../../lib/gcc/pic32mx/4.8.3/../../../../pic32mx/lib/fpu64\libc.a(calloc.o)
 .reginfo       0x00000000       0x18 c:/program files (x86)/microchip/xc32/v1.42/bin/bin/../../lib/gcc/pic32mx/4.8.3/../../../../pic32mx/lib/fpu64\libc.a(calloc.o)
 .text          0x00000000        0x0 c:/program files (x86)/microchip/xc32/v1.42/bin/bin/../../lib/gcc/pic32mx/4.8.3/../../../../pic32mx/lib/fpu64\libc.a(ctype.o)
 .data          0x00000000        0x0 c:/program files (x86)/microchip/xc32/v1.42/bin/bin/../../lib/gcc/pic32mx/4.8.3/../../../../pic32mx/lib/fpu64\libc.a(ctype.o)
 .bss           0x00000000        0x0 c:/program files (x86)/microchip/xc32/v1.42/bin/bin/../../lib/gcc/pic32mx/4.8.3/../../../../pic32mx/lib/fpu64\libc.a(ctype.o)
 .reginfo       0x00000000       0x18 c:/program files (x86)/microchip/xc32/v1.42/bin/bin/../../lib/gcc/pic32mx/4.8.3/../../../../pic32mx/lib/fpu64\libc.a(ctype.o)
 .text          0x00000000        0x0 c:/program files (x86)/microchip/xc32/v1.42/bin/bin/../../lib/gcc/pic32mx/4.8.3/../../../../pic32mx/lib/fpu64\libc.a(ctypef.o)
 .data          0x00000000        0x0 c:/program files (x86)/microchip/xc32/v1.42/bin/bin/../../lib/gcc/pic32mx/4.8.3/../../../../pic32mx/lib/fpu64\libc.a(ctypef.o)
 .bss           0x00000000        0x0 c:/program files (x86)/microchip/xc32/v1.42/bin/bin/../../lib/gcc/pic32mx/4.8.3/../../../../pic32mx/lib/fpu64\libc.a(ctypef.o)
 .reginfo       0x00000000       0x18 c:/program files (x86)/microchip/xc32/v1.42/bin/bin/../../lib/gcc/pic32mx/4.8.3/../../../../pic32mx/lib/fpu64\libc.a(ctypef.o)
 .text.tolower  0x00000000       0x24 c:/program files (x86)/microchip/xc32/v1.42/bin/bin/../../lib/gcc/pic32mx/4.8.3/../../../../pic32mx/lib/fpu64\libc.a(ctypef.o)
 .text.isalnum  0x00000000       0x18 c:/program files (x86)/microchip/xc32/v1.42/bin/bin/../../lib/gcc/pic32mx/4.8.3/../../../../pic32mx/lib/fpu64\libc.a(ctypef.o)
 .text.isalpha  0x00000000       0x18 c:/program files (x86)/microchip/xc32/v1.42/bin/bin/../../lib/gcc/pic32mx/4.8.3/../../../../pic32mx/lib/fpu64\libc.a(ctypef.o)
 .text.isascii  0x00000000        0x8 c:/program files (x86)/microchip/xc32/v1.42/bin/bin/../../lib/gcc/pic32mx/4.8.3/../../../../pic32mx/lib/fpu64\libc.a(ctypef.o)
 .text.iscntrl  0x00000000       0x18 c:/program files (x86)/microchip/xc32/v1.42/bin/bin/../../lib/gcc/pic32mx/4.8.3/../../../../pic32mx/lib/fpu64\libc.a(ctypef.o)
 .text.isdigit  0x00000000       0x18 c:/program files (x86)/microchip/xc32/v1.42/bin/bin/../../lib/gcc/pic32mx/4.8.3/../../../../pic32mx/lib/fpu64\libc.a(ctypef.o)
 .text.isgraph  0x00000000       0x18 c:/program files (x86)/microchip/xc32/v1.42/bin/bin/../../lib/gcc/pic32mx/4.8.3/../../../../pic32mx/lib/fpu64\libc.a(ctypef.o)
 .text.islower  0x00000000       0x18 c:/program files (x86)/microchip/xc32/v1.42/bin/bin/../../lib/gcc/pic32mx/4.8.3/../../../../pic32mx/lib/fpu64\libc.a(ctypef.o)
 .text.isprint  0x00000000       0x18 c:/program files (x86)/microchip/xc32/v1.42/bin/bin/../../lib/gcc/pic32mx/4.8.3/../../../../pic32mx/lib/fpu64\libc.a(ctypef.o)
 .text.ispunct  0x00000000       0x18 c:/program files (x86)/microchip/xc32/v1.42/bin/bin/../../lib/gcc/pic32mx/4.8.3/../../../../pic32mx/lib/fpu64\libc.a(ctypef.o)
 .text.isspace  0x00000000       0x18 c:/program files (x86)/microchip/xc32/v1.42/bin/bin/../../lib/gcc/pic32mx/4.8.3/../../../../pic32mx/lib/fpu64\libc.a(ctypef.o)
 .text.isupper  0x00000000       0x18 c:/program files (x86)/microchip/xc32/v1.42/bin/bin/../../lib/gcc/pic32mx/4.8.3/../../../../pic32mx/lib/fpu64\libc.a(ctypef.o)
 .text.isxdigit
                0x00000000       0x18 c:/program files (x86)/microchip/xc32/v1.42/bin/bin/../../lib/gcc/pic32mx/4.8.3/../../../../pic32mx/lib/fpu64\libc.a(ctypef.o)
 .text.toascii  0x00000000        0x8 c:/program files (x86)/microchip/xc32/v1.42/bin/bin/../../lib/gcc/pic32mx/4.8.3/../../../../pic32mx/lib/fpu64\libc.a(ctypef.o)
 .text._tolower
                0x00000000        0x8 c:/program files (x86)/microchip/xc32/v1.42/bin/bin/../../lib/gcc/pic32mx/4.8.3/../../../../pic32mx/lib/fpu64\libc.a(ctypef.o)
 .text._toupper
                0x00000000        0x8 c:/program files (x86)/microchip/xc32/v1.42/bin/bin/../../lib/gcc/pic32mx/4.8.3/../../../../pic32mx/lib/fpu64\libc.a(ctypef.o)
 .text          0x00000000        0x0 c:/program files (x86)/microchip/xc32/v1.42/bin/bin/../../lib/gcc/pic32mx/4.8.3/../../../../pic32mx/lib/fpu64\libc.a(malloc.o)
 .data          0x00000000        0x0 c:/program files (x86)/microchip/xc32/v1.42/bin/bin/../../lib/gcc/pic32mx/4.8.3/../../../../pic32mx/lib/fpu64\libc.a(malloc.o)
 .reginfo       0x00000000       0x18 c:/program files (x86)/microchip/xc32/v1.42/bin/bin/../../lib/gcc/pic32mx/4.8.3/../../../../pic32mx/lib/fpu64\libc.a(malloc.o)
 .text.realloc  0x00000000      0x14c c:/program files (x86)/microchip/xc32/v1.42/bin/bin/../../lib/gcc/pic32mx/4.8.3/../../../../pic32mx/lib/fpu64\libc.a(malloc.o)
 .text          0x00000000        0x0 c:/program files (x86)/microchip/xc32/v1.42/bin/bin/../../lib/gcc/pic32mx/4.8.3/../../../../pic32mx/lib/fpu64\libc.a(rand.o)
 .data          0x00000000        0x0 c:/program files (x86)/microchip/xc32/v1.42/bin/bin/../../lib/gcc/pic32mx/4.8.3/../../../../pic32mx/lib/fpu64\libc.a(rand.o)
 .reginfo       0x00000000       0x18 c:/program files (x86)/microchip/xc32/v1.42/bin/bin/../../lib/gcc/pic32mx/4.8.3/../../../../pic32mx/lib/fpu64\libc.a(rand.o)
 .text          0x00000000        0x0 c:/program files (x86)/microchip/xc32/v1.42/bin/bin/../../lib/gcc/pic32mx/4.8.3/../../../../pic32mx/lib/fpu64\libc.a(strncpy.o)
 .data          0x00000000        0x0 c:/program files (x86)/microchip/xc32/v1.42/bin/bin/../../lib/gcc/pic32mx/4.8.3/../../../../pic32mx/lib/fpu64\libc.a(strncpy.o)
 .bss           0x00000000        0x0 c:/program files (x86)/microchip/xc32/v1.42/bin/bin/../../lib/gcc/pic32mx/4.8.3/../../../../pic32mx/lib/fpu64\libc.a(strncpy.o)
 .reginfo       0x00000000       0x18 c:/program files (x86)/microchip/xc32/v1.42/bin/bin/../../lib/gcc/pic32mx/4.8.3/../../../../pic32mx/lib/fpu64\libc.a(strncpy.o)
 .text          0x00000000        0x0 c:/program files (x86)/microchip/xc32/v1.42/bin/bin/../../lib/gcc/pic32mx/4.8.3/../../../../pic32mx/lib/fpu64\libc.a(strtol.o)
 .data          0x00000000        0x0 c:/program files (x86)/microchip/xc32/v1.42/bin/bin/../../lib/gcc/pic32mx/4.8.3/../../../../pic32mx/lib/fpu64\libc.a(strtol.o)
 .bss           0x00000000        0x0 c:/program files (x86)/microchip/xc32/v1.42/bin/bin/../../lib/gcc/pic32mx/4.8.3/../../../../pic32mx/lib/fpu64\libc.a(strtol.o)
 .reginfo       0x00000000       0x18 c:/program files (x86)/microchip/xc32/v1.42/bin/bin/../../lib/gcc/pic32mx/4.8.3/../../../../pic32mx/lib/fpu64\libc.a(strtol.o)
 .text.strtoul  0x00000000      0x1d4 c:/program files (x86)/microchip/xc32/v1.42/bin/bin/../../lib/gcc/pic32mx/4.8.3/../../../../pic32mx/lib/fpu64\libc.a(strtol.o)
 .text.strtol   0x00000000      0x19c c:/program files (x86)/microchip/xc32/v1.42/bin/bin/../../lib/gcc/pic32mx/4.8.3/../../../../pic32mx/lib/fpu64\libc.a(strtol.o)
 .text          0x00000000        0x0 c:/program files (x86)/microchip/xc32/v1.42/bin/bin/../../lib/gcc/pic32mx/4.8.3/../../../../pic32mx/lib/fpu64\libc.a(snprintf_cdnopsuxX.eo)
 .data          0x00000000        0x0 c:/program files (x86)/microchip/xc32/v1.42/bin/bin/../../lib/gcc/pic32mx/4.8.3/../../../../pic32mx/lib/fpu64\libc.a(snprintf_cdnopsuxX.eo)
 .bss           0x00000000        0x0 c:/program files (x86)/microchip/xc32/v1.42/bin/bin/../../lib/gcc/pic32mx/4.8.3/../../../../pic32mx/lib/fpu64\libc.a(snprintf_cdnopsuxX.eo)
 .reginfo       0x00000000       0x18 c:/program files (x86)/microchip/xc32/v1.42/bin/bin/../../lib/gcc/pic32mx/4.8.3/../../../../pic32mx/lib/fpu64\libc.a(snprintf_cdnopsuxX.eo)
 .text          0x00000000        0x0 c:/program files (x86)/microchip/xc32/v1.42/bin/bin/../../lib/gcc/pic32mx/4.8.3/../../../../pic32mx/lib/fpu64\libc.a(sprintf_cdnopuxX.eo)
 .data          0x00000000        0x0 c:/program files (x86)/microchip/xc32/v1.42/bin/bin/../../lib/gcc/pic32mx/4.8.3/../../../../pic32mx/lib/fpu64\libc.a(sprintf_cdnopuxX.eo)
 .bss           0x00000000        0x0 c:/program files (x86)/microchip/xc32/v1.42/bin/bin/../../lib/gcc/pic32mx/4.8.3/../../../../pic32mx/lib/fpu64\libc.a(sprintf_cdnopuxX.eo)
 .reginfo       0x00000000       0x18 c:/program files (x86)/microchip/xc32/v1.42/bin/bin/../../lib/gcc/pic32mx/4.8.3/../../../../pic32mx/lib/fpu64\libc.a(sprintf_cdnopuxX.eo)
 .text._sprintf_cdnopuxX
                0x00000000       0x68 c:/program files (x86)/microchip/xc32/v1.42/bin/bin/../../lib/gcc/pic32mx/4.8.3/../../../../pic32mx/lib/fpu64\libc.a(sprintf_cdnopuxX.eo)
 .text          0x00000000        0x0 c:/program files (x86)/microchip/xc32/v1.42/bin/bin/../../lib/gcc/pic32mx/4.8.3/../../../../pic32mx/lib/fpu64\libc.a(vsnprintf_cdnopsuxX.eo)
 .data          0x00000000        0x0 c:/program files (x86)/microchip/xc32/v1.42/bin/bin/../../lib/gcc/pic32mx/4.8.3/../../../../pic32mx/lib/fpu64\libc.a(vsnprintf_cdnopsuxX.eo)
 .bss           0x00000000        0x0 c:/program files (x86)/microchip/xc32/v1.42/bin/bin/../../lib/gcc/pic32mx/4.8.3/../../../../pic32mx/lib/fpu64\libc.a(vsnprintf_cdnopsuxX.eo)
 .reginfo       0x00000000       0x18 c:/program files (x86)/microchip/xc32/v1.42/bin/bin/../../lib/gcc/pic32mx/4.8.3/../../../../pic32mx/lib/fpu64\libc.a(vsnprintf_cdnopsuxX.eo)
 .text          0x00000000        0x0 c:/program files (x86)/microchip/xc32/v1.42/bin/bin/../../lib/gcc/pic32mx/4.8.3/../../../../pic32mx/lib/fpu64\libc.a(errno.o)
 .data          0x00000000        0x0 c:/program files (x86)/microchip/xc32/v1.42/bin/bin/../../lib/gcc/pic32mx/4.8.3/../../../../pic32mx/lib/fpu64\libc.a(errno.o)
 .bss           0x00000000        0x0 c:/program files (x86)/microchip/xc32/v1.42/bin/bin/../../lib/gcc/pic32mx/4.8.3/../../../../pic32mx/lib/fpu64\libc.a(errno.o)
 .reginfo       0x00000000       0x18 c:/program files (x86)/microchip/xc32/v1.42/bin/bin/../../lib/gcc/pic32mx/4.8.3/../../../../pic32mx/lib/fpu64\libc.a(errno.o)
 .text          0x00000000        0x0 c:/program files (x86)/microchip/xc32/v1.42/bin/bin/../../lib/gcc/pic32mx/4.8.3/../../../../pic32mx/lib/fpu64\libc.a(doprnt_cdnopsuxX.eo)
 .data          0x00000000        0x0 c:/program files (x86)/microchip/xc32/v1.42/bin/bin/../../lib/gcc/pic32mx/4.8.3/../../../../pic32mx/lib/fpu64\libc.a(doprnt_cdnopsuxX.eo)
 .bss           0x00000000        0x0 c:/program files (x86)/microchip/xc32/v1.42/bin/bin/../../lib/gcc/pic32mx/4.8.3/../../../../pic32mx/lib/fpu64\libc.a(doprnt_cdnopsuxX.eo)
 .reginfo       0x00000000       0x18 c:/program files (x86)/microchip/xc32/v1.42/bin/bin/../../lib/gcc/pic32mx/4.8.3/../../../../pic32mx/lib/fpu64\libc.a(doprnt_cdnopsuxX.eo)
 .text          0x00000000        0x0 c:/program files (x86)/microchip/xc32/v1.42/bin/bin/../../lib/gcc/pic32mx/4.8.3/../../../../pic32mx/lib/fpu64\libc.a(_fputc_simple.o)
 .data          0x00000000        0x0 c:/program files (x86)/microchip/xc32/v1.42/bin/bin/../../lib/gcc/pic32mx/4.8.3/../../../../pic32mx/lib/fpu64\libc.a(_fputc_simple.o)
 .bss           0x00000000        0x0 c:/program files (x86)/microchip/xc32/v1.42/bin/bin/../../lib/gcc/pic32mx/4.8.3/../../../../pic32mx/lib/fpu64\libc.a(_fputc_simple.o)
 .reginfo       0x00000000       0x18 c:/program files (x86)/microchip/xc32/v1.42/bin/bin/../../lib/gcc/pic32mx/4.8.3/../../../../pic32mx/lib/fpu64\libc.a(_fputc_simple.o)
 .text          0x00000000        0x0 c:/program files (x86)/microchip/xc32/v1.42/bin/bin/../../lib/gcc/pic32mx/4.8.3/../../../../pic32mx/lib/fpu64\libc.a(_iob.o)
 .data          0x00000000       0xa4 c:/program files (x86)/microchip/xc32/v1.42/bin/bin/../../lib/gcc/pic32mx/4.8.3/../../../../pic32mx/lib/fpu64\libc.a(_iob.o)
 .reginfo       0x00000000       0x18 c:/program files (x86)/microchip/xc32/v1.42/bin/bin/../../lib/gcc/pic32mx/4.8.3/../../../../pic32mx/lib/fpu64\libc.a(_iob.o)
 .text          0x00000000        0x0 c:/program files (x86)/microchip/xc32/v1.42/bin/bin/../../lib/gcc/pic32mx/4.8.3/../../../../pic32mx/lib/fpu64\libc.a(_flsbuf_simple.o)
 .data          0x00000000        0x0 c:/program files (x86)/microchip/xc32/v1.42/bin/bin/../../lib/gcc/pic32mx/4.8.3/../../../../pic32mx/lib/fpu64\libc.a(_flsbuf_simple.o)
 .bss           0x00000000        0x0 c:/program files (x86)/microchip/xc32/v1.42/bin/bin/../../lib/gcc/pic32mx/4.8.3/../../../../pic32mx/lib/fpu64\libc.a(_flsbuf_simple.o)
 .reginfo       0x00000000       0x18 c:/program files (x86)/microchip/xc32/v1.42/bin/bin/../../lib/gcc/pic32mx/4.8.3/../../../../pic32mx/lib/fpu64\libc.a(_flsbuf_simple.o)
 .text          0x00000000        0x0 c:/program files (x86)/microchip/xc32/v1.42/bin/bin/../../lib/gcc/pic32mx/4.8.3/../../../../pic32mx/lib/fpu64\libpic32.a(sbrk.o)
 .data          0x00000000        0x0 c:/program files (x86)/microchip/xc32/v1.42/bin/bin/../../lib/gcc/pic32mx/4.8.3/../../../../pic32mx/lib/fpu64\libpic32.a(sbrk.o)
 .reginfo       0x00000000       0x18 c:/program files (x86)/microchip/xc32/v1.42/bin/bin/../../lib/gcc/pic32mx/4.8.3/../../../../pic32mx/lib/fpu64\libpic32.a(sbrk.o)
 .text.getpagesize
                0x00000000        0x8 c:/program files (x86)/microchip/xc32/v1.42/bin/bin/../../lib/gcc/pic32mx/4.8.3/../../../../pic32mx/lib/fpu64\libpic32.a(sbrk.o)
 .text          0x00000000        0x0 c:/program files (x86)/microchip/xc32/v1.42/bin/bin/../../lib/gcc/pic32mx/4.8.3/../../../../pic32mx/lib/fpu64\libpic32.a(write.o)
 .data          0x00000000        0x0 c:/program files (x86)/microchip/xc32/v1.42/bin/bin/../../lib/gcc/pic32mx/4.8.3/../../../../pic32mx/lib/fpu64\libpic32.a(write.o)
 .bss           0x00000000        0x0 c:/program files (x86)/microchip/xc32/v1.42/bin/bin/../../lib/gcc/pic32mx/4.8.3/../../../../pic32mx/lib/fpu64\libpic32.a(write.o)
 .reginfo       0x00000000       0x18 c:/program files (x86)/microchip/xc32/v1.42/bin/bin/../../lib/gcc/pic32mx/4.8.3/../../../../pic32mx/lib/fpu64\libpic32.a(write.o)
 .text          0x00000000        0x0 c:/program files (x86)/microchip/xc32/v1.42/bin/bin/../../lib/gcc/pic32mx/4.8.3/../../../../pic32mx/lib/fpu64\libpic32.a(_mon_putc.o)
 .data          0x00000000        0x0 c:/program files (x86)/microchip/xc32/v1.42/bin/bin/../../lib/gcc/pic32mx/4.8.3/../../../../pic32mx/lib/fpu64\libpic32.a(_mon_putc.o)
 .bss           0x00000000        0x0 c:/program files (x86)/microchip/xc32/v1.42/bin/bin/../../lib/gcc/pic32mx/4.8.3/../../../../pic32mx/lib/fpu64\libpic32.a(_mon_putc.o)
 .reginfo       0x00000000       0x18 c:/program files (x86)/microchip/xc32/v1.42/bin/bin/../../lib/gcc/pic32mx/4.8.3/../../../../pic32mx/lib/fpu64\libpic32.a(_mon_putc.o)
 .text          0x00000000        0x0 c:/program files (x86)/microchip/xc32/v1.42/bin/bin/../../lib/gcc/pic32mx/4.8.3/../../../../pic32mx/lib/fpu64\libpic32.a(xc32_uart.o)
 .data          0x00000000        0x0 c:/program files (x86)/microchip/xc32/v1.42/bin/bin/../../lib/gcc/pic32mx/4.8.3/../../../../pic32mx/lib/fpu64\libpic32.a(xc32_uart.o)
 .bss           0x00000000        0x0 c:/program files (x86)/microchip/xc32/v1.42/bin/bin/../../lib/gcc/pic32mx/4.8.3/../../../../pic32mx/lib/fpu64\libpic32.a(xc32_uart.o)
 .reginfo       0x00000000       0x18 c:/program files (x86)/microchip/xc32/v1.42/bin/bin/../../lib/gcc/pic32mx/4.8.3/../../../../pic32mx/lib/fpu64\libpic32.a(xc32_uart.o)
 .data          0x00000000        0x0 c:/program files (x86)/microchip/xc32/v1.42/bin/bin/../../lib/gcc/pic32mx/4.8.3/fpu64\libgcc.a(_umoddi3.o)
 .bss           0x00000000        0x0 c:/program files (x86)/microchip/xc32/v1.42/bin/bin/../../lib/gcc/pic32mx/4.8.3/fpu64\libgcc.a(_umoddi3.o)
 .reginfo       0x00000000       0x18 c:/program files (x86)/microchip/xc32/v1.42/bin/bin/../../lib/gcc/pic32mx/4.8.3/fpu64\libgcc.a(_umoddi3.o)

Memory Configuration

Name             Origin             Length             Attributes
kseg1_boot_mem   0xbfc00000         0x00000480
kseg0_program_mem 0x9fc01000         0x0002ef00         xr
protected_reg3   0x9fc14000         0x0000c000
kseg0_boot_mem   0x9fc004b0         0x00000000
kseg1_boot_mem_4B0 0xbfc004b0         0x00000b50
config_BFC0FF40  0xbfc0ff40         0x00000004
config_BFC0FF44  0xbfc0ff44         0x00000004
config_BFC0FF48  0xbfc0ff48         0x00000004
config_BFC0FF4C  0xbfc0ff4c         0x00000004
config_BFC0FF50  0xbfc0ff50         0x00000004
config_BFC0FF54  0xbfc0ff54         0x00000004
config_BFC0FF58  0xbfc0ff58         0x00000004
config_BFC0FF5C  0xbfc0ff5c         0x00000004
config_BFC0FF60  0xbfc0ff60         0x00000004
config_BFC0FF64  0xbfc0ff64         0x00000004
config_BFC0FF68  0xbfc0ff68         0x00000004
config_BFC0FF6C  0xbfc0ff6c         0x00000004
config_BFC0FF70  0xbfc0ff70         0x00000004
config_BFC0FF74  0xbfc0ff74         0x00000004
config_BFC0FF78  0xbfc0ff78         0x00000004
config_BFC0FF7C  0xbfc0ff7c         0x00000004
config_BFC0FFC0  0xbfc0ffc0         0x00000004
config_BFC0FFC4  0xbfc0ffc4         0x00000004
config_BFC0FFC8  0xbfc0ffc8         0x00000004
config_BFC0FFCC  0xbfc0ffcc         0x00000004
config_BFC0FFD0  0xbfc0ffd0         0x00000004
config_BFC0FFD4  0xbfc0ffd4         0x00000004
config_BFC0FFD8  0xbfc0ffd8         0x00000004
config_BFC0FFDC  0xbfc0ffdc         0x00000004
config_BFC0FFE0  0xbfc0ffe0         0x00000004
config_BFC0FFE4  0xbfc0ffe4         0x00000004
config_BFC0FFE8  0xbfc0ffe8         0x00000004
config_BFC0FFEC  0xbfc0ffec         0x00000004
config_BFC0FFF0  0xbfc0fff0         0x00000004
config_BFC0FFF4  0xbfc0fff4         0x00000004
config_BFC0FFF8  0xbfc0fff8         0x00000004
config_BFC0FFFC  0xbfc0fffc         0x00000004
lowerbootaliaslastpage 0xbfc10000         0x00004000
upperbootalias   0xbfc20000         0x00014000
boot1            0xbfc40000         0x0000ff00
config_BFC4FF40  0xbfc4ff40         0x00000004
config_BFC4FF44  0xbfc4ff44         0x00000004
config_BFC4FF48  0xbfc4ff48         0x00000004
config_BFC4FF4C  0xbfc4ff4c         0x00000004
config_BFC4FF50  0xbfc4ff50         0x00000004
config_BFC4FF54  0xbfc4ff54         0x00000004
config_BFC4FF58  0xbfc4ff58         0x00000004
config_BFC4FF5C  0xbfc4ff5c         0x00000004
config_BFC4FF60  0xbfc4ff60         0x00000004
config_BFC4FF64  0xbfc4ff64         0x00000004
config_BFC4FF68  0xbfc4ff68         0x00000004
config_BFC4FF6C  0xbfc4ff6c         0x00000004
config_BFC4FF70  0xbfc4ff70         0x00000004
config_BFC4FF74  0xbfc4ff74         0x00000004
config_BFC4FF78  0xbfc4ff78         0x00000004
config_BFC4FF7C  0xbfc4ff7c         0x00000004
config_BFC4FFC0  0xbfc4ffc0         0x00000004
config_BFC4FFC4  0xbfc4ffc4         0x00000004
config_BFC4FFC8  0xbfc4ffc8         0x00000004
config_BFC4FFCC  0xbfc4ffcc         0x00000004
config_BFC4FFD0  0xbfc4ffd0         0x00000004
config_BFC4FFD4  0xbfc4ffd4         0x00000004
config_BFC4FFD8  0xbfc4ffd8         0x00000004
config_BFC4FFDC  0xbfc4ffdc         0x00000004
config_BFC4FFE0  0xbfc4ffe0         0x00000004
config_BFC4FFE4  0xbfc4ffe4         0x00000004
config_BFC4FFE8  0xbfc4ffe8         0x00000004
config_BFC4FFEC  0xbfc4ffec         0x00000004
config_BFC4FFF0  0xbfc4fff0         0x00000004
config_BFC4FFF4  0xbfc4fff4         0x00000004
config_BFC4FFF8  0xbfc4fff8         0x00000004
config_BFC4FFFC  0xbfc4fffc         0x00000004
boot1lastpage    0xbfc50000         0x00004000
config_BFC54000  0xbfc54000         0x00000004
config_BFC54004  0xbfc54004         0x00000004
config_BFC54008  0xbfc54008         0x00000004
config_BFC5400C  0xbfc5400c         0x00000004
config_BFC54010  0xbfc54010         0x00000004
config_BFC54020  0xbfc54020         0x00000004
config_BFC54024  0xbfc54024         0x00000004
boot2            0xbfc60000         0x0000ff00
config_BFC6FF40  0xbfc6ff40         0x00000004
config_BFC6FF44  0xbfc6ff44         0x00000004
config_BFC6FF48  0xbfc6ff48         0x00000004
config_BFC6FF4C  0xbfc6ff4c         0x00000004
config_BFC6FF50  0xbfc6ff50         0x00000004
config_BFC6FF54  0xbfc6ff54         0x00000004
config_BFC6FF58  0xbfc6ff58         0x00000004
config_BFC6FF5C  0xbfc6ff5c         0x00000004
config_BFC6FF60  0xbfc6ff60         0x00000004
config_BFC6FF64  0xbfc6ff64         0x00000004
config_BFC6FF68  0xbfc6ff68         0x00000004
config_BFC6FF6C  0xbfc6ff6c         0x00000004
config_BFC6FF70  0xbfc6ff70         0x00000004
config_BFC6FF74  0xbfc6ff74         0x00000004
config_BFC6FF78  0xbfc6ff78         0x00000004
config_BFC6FF7C  0xbfc6ff7c         0x00000004
config_BFC6FFC0  0xbfc6ffc0         0x00000004
config_BFC6FFC4  0xbfc6ffc4         0x00000004
config_BFC6FFC8  0xbfc6ffc8         0x00000004
config_BFC6FFCC  0xbfc6ffcc         0x00000004
config_BFC6FFD0  0xbfc6ffd0         0x00000004
config_BFC6FFD4  0xbfc6ffd4         0x00000004
config_BFC6FFD8  0xbfc6ffd8         0x00000004
config_BFC6FFDC  0xbfc6ffdc         0x00000004
config_BFC6FFE0  0xbfc6ffe0         0x00000004
config_BFC6FFE4  0xbfc6ffe4         0x00000004
config_BFC6FFE8  0xbfc6ffe8         0x00000004
config_BFC6FFEC  0xbfc6ffec         0x00000004
config_BFC6FFF0  0xbfc6fff0         0x00000004
config_BFC6FFF4  0xbfc6fff4         0x00000004
config_BFC6FFF8  0xbfc6fff8         0x00000004
config_BFC6FFFC  0xbfc6fffc         0x00000004
boot2lastpage    0xbfc70000         0x00004000
configsfrs_BFC0FF40 0xbfc0ff40         0x00000040
configsfrs_BFC0FFC0 0xbfc0ffc0         0x00000040
configsfrs_BFC4FF40 0xbfc4ff40         0x00000040
configsfrs_BFC4FFC0 0xbfc4ffc0         0x00000040
configsfrs_BFC54000 0xbfc54000         0x00000014
configsfrs_BFC54020 0xbfc54020         0x00000008
configsfrs_BFC6FF40 0xbfc6ff40         0x00000040
configsfrs_BFC6FFC0 0xbfc6ffc0         0x00000040
kseg0_data_mem   0x80000000         0x00080000         w !x
sfrs             0xbf800000         0x00100000
kseg2_ebi_data_mem 0xc0000000         0x04000000
kseg2_sqi_data_mem 0xd0000000         0x04000000
kseg3_ebi_data_mem 0xe0000000         0x04000000
kseg3_sqi_data_mem 0xf0000000         0x04000000
*default*        0x00000000         0xffffffff

Linker script and memory map

LOAD c:/program files (x86)/microchip/xc32/v1.42/bin/bin/../../lib/gcc/pic32mx/4.8.3/../../../../pic32mx/lib/./proc/32MZ2048EFH144/crt0_mips32r2.o
LOAD c:/program files (x86)/microchip/xc32/v1.42/bin/bin/../../lib/gcc/pic32mx/4.8.3/../../../../pic32mx/lib/fpu64\debug-exception-return.o
LOAD build/udp_pic32mz_ef_sk/production/_ext/938613576/bsp.o
LOAD build/udp_pic32mz_ef_sk/production/_ext/1991045727/sys_clk_pic32mz.o
LOAD build/udp_pic32mz_ef_sk/production/_ext/2092611130/sys_devcon.o
LOAD build/udp_pic32mz_ef_sk/production/_ext/2092611130/sys_devcon_pic32mz.o
LOAD build/udp_pic32mz_ef_sk/production/_ext/2092611130/sys_devcon_cache_pic32mz.o
LOAD build/udp_pic32mz_ef_sk/production/_ext/1633430821/sys_memory_smc_static.o
LOAD build/udp_pic32mz_ef_sk/production/_ext/641914703/sys_ports_static.o
LOAD build/udp_pic32mz_ef_sk/production/_ext/1532728844/sys_reset.o
LOAD build/udp_pic32mz_ef_sk/production/_ext/2145045400/system_init.o
LOAD build/udp_pic32mz_ef_sk/production/_ext/2145045400/system_interrupt.o
LOAD build/udp_pic32mz_ef_sk/production/_ext/2145045400/system_exceptions.o
LOAD build/udp_pic32mz_ef_sk/production/_ext/2145045400/system_tasks.o
LOAD build/udp_pic32mz_ef_sk/production/_ext/1360937237/main.o
LOAD build/udp_pic32mz_ef_sk/production/_ext/1360937237/app.o
LOAD build/udp_pic32mz_ef_sk/production/_ext/615392287/datastream.o
LOAD build/udp_pic32mz_ef_sk/production/_ext/615392287/datastream_udp.o
LOAD build/udp_pic32mz_ef_sk/production/_ext/686445382/bootloader.o
LOAD build/udp_pic32mz_ef_sk/production/_ext/686445382/nvm.o
LOAD build/udp_pic32mz_ef_sk/production/_ext/1697634946/drv_ethmac.o
LOAD build/udp_pic32mz_ef_sk/production/_ext/1697634946/drv_ethmac_lib.o
LOAD build/udp_pic32mz_ef_sk/production/_ext/521481140/drv_ethphy.o
LOAD build/udp_pic32mz_ef_sk/production/_ext/521481140/drv_extphy_smsc8740.o
LOAD build/udp_pic32mz_ef_sk/production/_ext/941160041/drv_tmr.o
LOAD build/udp_pic32mz_ef_sk/production/_ext/1042686532/sys_int_pic32.o
LOAD build/udp_pic32mz_ef_sk/production/_ext/470001640/sys_random.o
LOAD build/udp_pic32mz_ef_sk/production/_ext/2110151058/sys_tmr.o
LOAD build/udp_pic32mz_ef_sk/production/_ext/1886247299/helpers.o
LOAD build/udp_pic32mz_ef_sk/production/_ext/1164207549/ipv4.o
LOAD build/udp_pic32mz_ef_sk/production/_ext/1164207549/udp.o
LOAD build/udp_pic32mz_ef_sk/production/_ext/1164207549/tcpip_heap_alloc.o
LOAD build/udp_pic32mz_ef_sk/production/_ext/1164207549/tcpip_heap_internal.o
LOAD build/udp_pic32mz_ef_sk/production/_ext/1164207549/arp.o
LOAD build/udp_pic32mz_ef_sk/production/_ext/1164207549/dhcp.o
LOAD build/udp_pic32mz_ef_sk/production/_ext/1164207549/dns.o
LOAD build/udp_pic32mz_ef_sk/production/_ext/1164207549/hash_fnv.o
LOAD build/udp_pic32mz_ef_sk/production/_ext/1164207549/oahash.o
LOAD build/udp_pic32mz_ef_sk/production/_ext/1164207549/tcpip_helpers.o
LOAD build/udp_pic32mz_ef_sk/production/_ext/1164207549/tcpip_helper_c32.o
LOAD build/udp_pic32mz_ef_sk/production/_ext/1164207549/tcpip_manager.o
LOAD build/udp_pic32mz_ef_sk/production/_ext/1164207549/tcpip_notify.o
LOAD build/udp_pic32mz_ef_sk/production/_ext/1164207549/tcpip_packet.o
LOAD ..\..\..\..\..\bin\framework\peripheral\PIC32MZ2048EFH144_peripherals.a
                0x00000001                __MPLAB_BUILD = 0x1
LOAD c:/program files (x86)/microchip/xc32/v1.42/bin/bin/../../lib/gcc/pic32mx/4.8.3/../../../../pic32mx/lib/./proc/32MZ2048EFH144\processor.o
START GROUP
LOAD libmchp_peripheral.a
END GROUP
START GROUP
LOAD c:/program files (x86)/microchip/xc32/v1.42/bin/bin/../../lib/gcc/pic32mx/4.8.3/../../../../pic32mx/lib/./proc/32MZ2048EFH144\vector_offset_init.o
END GROUP
                0x00000001                PROVIDE (_vector_spacing, 0x1)
                0x9fc01000                PROVIDE (_ebase_address, 0x9fc01000)
                0xbfc00380                _BEV_EXCPT_ADDR = 0xbfc00380
                0xbfc00480                _DBG_EXCPT_ADDR = 0xbfc00480
                0xbfc00000                _RESET_ADDR = 0xbfc00000
                0x9fc01000                _SIMPLE_TLB_REFILL_EXCPT_ADDR = (_ebase_address + 0x0)
                0x9fc01100                _CACHE_ERR_EXCPT_ADDR = (_ebase_address + 0x100)
                0x9fc01180                _GEN_EXCPT_ADDR = (_ebase_address + 0x180)

.config_BFC0FF40
 *(.config_BFC0FF40)

.config_BFC0FF44
 *(.config_BFC0FF44)

.config_BFC0FF48
 *(.config_BFC0FF48)

.config_BFC0FF4C
 *(.config_BFC0FF4C)

.config_BFC0FF50
 *(.config_BFC0FF50)

.config_BFC0FF54
 *(.config_BFC0FF54)

.config_BFC0FF58
 *(.config_BFC0FF58)

.config_BFC0FF5C
 *(.config_BFC0FF5C)

.config_BFC0FF60
 *(.config_BFC0FF60)

.config_BFC0FF64
 *(.config_BFC0FF64)

.config_BFC0FF68
 *(.config_BFC0FF68)

.config_BFC0FF6C
 *(.config_BFC0FF6C)

.config_BFC0FF70
 *(.config_BFC0FF70)

.config_BFC0FF74
 *(.config_BFC0FF74)

.config_BFC0FF78
 *(.config_BFC0FF78)

.config_BFC0FF7C
 *(.config_BFC0FF7C)

.config_BFC0FFC0
                0xbfc0ffc0        0x4
 *(.config_BFC0FFC0)
 .config_BFC0FFC0
                0xbfc0ffc0        0x4 build/udp_pic32mz_ef_sk/production/_ext/2145045400/system_init.o

.config_BFC0FFC4
                0xbfc0ffc4        0x4
 *(.config_BFC0FFC4)
 .config_BFC0FFC4
                0xbfc0ffc4        0x4 build/udp_pic32mz_ef_sk/production/_ext/2145045400/system_init.o

.config_BFC0FFC8
                0xbfc0ffc8        0x4
 *(.config_BFC0FFC8)
 .config_BFC0FFC8
                0xbfc0ffc8        0x4 build/udp_pic32mz_ef_sk/production/_ext/2145045400/system_init.o

.config_BFC0FFCC
                0xbfc0ffcc        0x4
 *(.config_BFC0FFCC)
 .config_BFC0FFCC
                0xbfc0ffcc        0x4 build/udp_pic32mz_ef_sk/production/_ext/2145045400/system_init.o

.config_BFC0FFD0
 *(.config_BFC0FFD0)

.config_BFC0FFD4
 *(.config_BFC0FFD4)

.config_BFC0FFD8
 *(.config_BFC0FFD8)

.config_BFC0FFDC
                0xbfc0ffdc        0x4
 *(.config_BFC0FFDC)
 .config_BFC0FFDC
                0xbfc0ffdc        0x4 build/udp_pic32mz_ef_sk/production/_ext/2145045400/system_init.o

.config_BFC0FFE0
 *(.config_BFC0FFE0)

.config_BFC0FFE4
 *(.config_BFC0FFE4)

.config_BFC0FFE8
 *(.config_BFC0FFE8)

.config_BFC0FFEC
 *(.config_BFC0FFEC)

.config_BFC0FFF0
                0xbfc0fff0        0x4
 *(.config_BFC0FFF0)
 .config_BFC0FFF0
                0xbfc0fff0        0x4 build/udp_pic32mz_ef_sk/production/_ext/2145045400/system_init.o

.config_BFC0FFF4
 *(.config_BFC0FFF4)

.config_BFC0FFF8
 *(.config_BFC0FFF8)

.config_BFC0FFFC
 *(.config_BFC0FFFC)

.config_BFC4FF40
 *(.config_BFC4FF40)

.config_BFC4FF44
 *(.config_BFC4FF44)

.config_BFC4FF48
 *(.config_BFC4FF48)

.config_BFC4FF4C
 *(.config_BFC4FF4C)

.config_BFC4FF50
 *(.config_BFC4FF50)

.config_BFC4FF54
 *(.config_BFC4FF54)

.config_BFC4FF58
 *(.config_BFC4FF58)

.config_BFC4FF5C
 *(.config_BFC4FF5C)

.config_BFC4FF60
 *(.config_BFC4FF60)

.config_BFC4FF64
 *(.config_BFC4FF64)

.config_BFC4FF68
 *(.config_BFC4FF68)

.config_BFC4FF6C
 *(.config_BFC4FF6C)

.config_BFC4FF70
 *(.config_BFC4FF70)

.config_BFC4FF74
 *(.config_BFC4FF74)

.config_BFC4FF78
 *(.config_BFC4FF78)

.config_BFC4FF7C
 *(.config_BFC4FF7C)

.config_BFC4FFC0
 *(.config_BFC4FFC0)

.config_BFC4FFC4
 *(.config_BFC4FFC4)

.config_BFC4FFC8
 *(.config_BFC4FFC8)

.config_BFC4FFCC
 *(.config_BFC4FFCC)

.config_BFC4FFD0
 *(.config_BFC4FFD0)

.config_BFC4FFD4
 *(.config_BFC4FFD4)

.config_BFC4FFD8
 *(.config_BFC4FFD8)

.config_BFC4FFDC
 *(.config_BFC4FFDC)

.config_BFC4FFE0
 *(.config_BFC4FFE0)

.config_BFC4FFE4
 *(.config_BFC4FFE4)

.config_BFC4FFE8
 *(.config_BFC4FFE8)

.config_BFC4FFEC
 *(.config_BFC4FFEC)

.config_BFC4FFF0
 *(.config_BFC4FFF0)

.config_BFC4FFF4
 *(.config_BFC4FFF4)

.config_BFC4FFF8
 *(.config_BFC4FFF8)

.config_BFC4FFFC
 *(.config_BFC4FFFC)

.config_BFC54000
 *(.config_BFC54000)

.config_BFC54004
 *(.config_BFC54004)

.config_BFC54008
 *(.config_BFC54008)

.config_BFC5400C
 *(.config_BFC5400C)

.config_BFC54010
 *(.config_BFC54010)

.config_BFC54020
 *(.config_BFC54020)

.config_BFC54024
 *(.config_BFC54024)

.config_BFC6FF40
 *(.config_BFC6FF40)

.config_BFC6FF44
 *(.config_BFC6FF44)

.config_BFC6FF48
 *(.config_BFC6FF48)

.config_BFC6FF4C
 *(.config_BFC6FF4C)

.config_BFC6FF50
 *(.config_BFC6FF50)

.config_BFC6FF54
 *(.config_BFC6FF54)

.config_BFC6FF58
 *(.config_BFC6FF58)

.config_BFC6FF5C
 *(.config_BFC6FF5C)

.config_BFC6FF60
 *(.config_BFC6FF60)

.config_BFC6FF64
 *(.config_BFC6FF64)

.config_BFC6FF68
 *(.config_BFC6FF68)

.config_BFC6FF6C
 *(.config_BFC6FF6C)

.config_BFC6FF70
 *(.config_BFC6FF70)

.config_BFC6FF74
 *(.config_BFC6FF74)

.config_BFC6FF78
 *(.config_BFC6FF78)

.config_BFC6FF7C
 *(.config_BFC6FF7C)

.config_BFC6FFC0
 *(.config_BFC6FFC0)

.config_BFC6FFC4
 *(.config_BFC6FFC4)

.config_BFC6FFC8
 *(.config_BFC6FFC8)

.config_BFC6FFCC
 *(.config_BFC6FFCC)

.config_BFC6FFD0
 *(.config_BFC6FFD0)

.config_BFC6FFD4
 *(.config_BFC6FFD4)

.config_BFC6FFD8
 *(.config_BFC6FFD8)

.config_BFC6FFDC
 *(.config_BFC6FFDC)

.config_BFC6FFE0
 *(.config_BFC6FFE0)

.config_BFC6FFE4
 *(.config_BFC6FFE4)

.config_BFC6FFE8
 *(.config_BFC6FFE8)

.config_BFC6FFEC
 *(.config_BFC6FFEC)

.config_BFC6FFF0
 *(.config_BFC6FFF0)

.config_BFC6FFF4
 *(.config_BFC6FFF4)

.config_BFC6FFF8
 *(.config_BFC6FFF8)

.config_BFC6FFFC
 *(.config_BFC6FFFC)

.reset          0xbfc00000      0x220
 *(.reset)
 .reset         0xbfc00000       0x18 c:/program files (x86)/microchip/xc32/v1.42/bin/bin/../../lib/gcc/pic32mx/4.8.3/../../../../pic32mx/lib/./proc/32MZ2048EFH144/crt0_mips32r2.o
                0xbfc00000                _reset
 *(.reset.startup)
 .reset.startup
                0xbfc00018      0x208 c:/program files (x86)/microchip/xc32/v1.42/bin/bin/../../lib/gcc/pic32mx/4.8.3/../../../../pic32mx/lib/./proc/32MZ2048EFH144/crt0_mips32r2.o

.bev_excpt      0xbfc00380       0x10
 *(.bev_handler)
 .bev_handler   0xbfc00380       0x10 c:/program files (x86)/microchip/xc32/v1.42/bin/bin/../../lib/gcc/pic32mx/4.8.3/../../../../pic32mx/lib/./proc/32MZ2048EFH144/crt0_mips32r2.o

.cache_init     0xbfc004b0      0x19c
 *(.cache_init)
 *(.cache_init.*)
 .cache_init.cache
                0xbfc004b0       0xc0 c:/program files (x86)/microchip/xc32/v1.42/bin/bin/../../lib/gcc/pic32mx/4.8.3/../../../../pic32mx/lib/fpu64\libpic32.a(pic32_init_cache.o)
 .cache_init.pic32_init_cache
                0xbfc00570       0xdc c:/program files (x86)/microchip/xc32/v1.42/bin/bin/../../lib/gcc/pic32mx/4.8.3/../../../../pic32mx/lib/fpu64\libpic32.a(pic32_init_cache.o)
                0xbfc00570                __pic32_init_cache

.simple_tlb_refill_excpt
                0x9fc01000       0x10
 *(.simple_tlb_refill_vector)
 .simple_tlb_refill_vector
                0x9fc01000       0x10 c:/program files (x86)/microchip/xc32/v1.42/bin/bin/../../lib/gcc/pic32mx/4.8.3/../../../../pic32mx/lib/./proc/32MZ2048EFH144/crt0_mips32r2.o

.cache_err_excpt
                0x9fc01100       0x10
 *(.cache_err_vector)
 .cache_err_vector
                0x9fc01100       0x10 c:/program files (x86)/microchip/xc32/v1.42/bin/bin/../../lib/gcc/pic32mx/4.8.3/../../../../pic32mx/lib/./proc/32MZ2048EFH144/crt0_mips32r2.o

.app_excpt      0x9fc01180       0x10
 *(.gen_handler)
 .gen_handler   0x9fc01180       0x10 c:/program files (x86)/microchip/xc32/v1.42/bin/bin/../../lib/gcc/pic32mx/4.8.3/../../../../pic32mx/lib/./proc/32MZ2048EFH144/crt0_mips32r2.o

.vectors        0x9fc01200       0x58
                0x00000210                __vector_offset_0 = DEFINED (__vector_dispatch_0)?(. - _ebase_address):__vector_offset_default
 *(.vector_0)
                0x00000210                __vector_offset_1 = DEFINED (__vector_dispatch_1)?(. - _ebase_address):__vector_offset_default
 *(.vector_1)
                0x00000210                __vector_offset_2 = DEFINED (__vector_dispatch_2)?(. - _ebase_address):__vector_offset_default
 *(.vector_2)
                0x00000210                __vector_offset_3 = DEFINED (__vector_dispatch_3)?(. - _ebase_address):__vector_offset_default
 *(.vector_3)
                0x00000200                __vector_offset_4 = DEFINED (__vector_dispatch_4)?(. - _ebase_address):__vector_offset_default
 *(.vector_4)
 .vector_4      0x9fc01200        0x8 build/udp_pic32mz_ef_sk/production/_ext/2145045400/system_interrupt.o
                0x9fc01200                __vector_dispatch_4
                0x00000210                __vector_offset_5 = DEFINED (__vector_dispatch_5)?(. - _ebase_address):__vector_offset_default
 *(.vector_5)
                0x00000210                __vector_offset_6 = DEFINED (__vector_dispatch_6)?(. - _ebase_address):__vector_offset_default
 *(.vector_6)
                0x00000210                __vector_offset_7 = DEFINED (__vector_dispatch_7)?(. - _ebase_address):__vector_offset_default
 *(.vector_7)
                0x00000210                __vector_offset_8 = DEFINED (__vector_dispatch_8)?(. - _ebase_address):__vector_offset_default
 *(.vector_8)
                0x00000210                __vector_offset_9 = DEFINED (__vector_dispatch_9)?(. - _ebase_address):__vector_offset_default
 *(.vector_9)
                0x00000210                __vector_offset_10 = DEFINED (__vector_dispatch_10)?(. - _ebase_address):__vector_offset_default
 *(.vector_10)
                0x00000210                __vector_offset_11 = DEFINED (__vector_dispatch_11)?(. - _ebase_address):__vector_offset_default
 *(.vector_11)
                0x00000210                __vector_offset_12 = DEFINED (__vector_dispatch_12)?(. - _ebase_address):__vector_offset_default
 *(.vector_12)
                0x00000210                __vector_offset_13 = DEFINED (__vector_dispatch_13)?(. - _ebase_address):__vector_offset_default
 *(.vector_13)
                0x00000210                __vector_offset_14 = DEFINED (__vector_dispatch_14)?(. - _ebase_address):__vector_offset_default
 *(.vector_14)
                0x00000210                __vector_offset_15 = DEFINED (__vector_dispatch_15)?(. - _ebase_address):__vector_offset_default
 *(.vector_15)
                0x00000210                __vector_offset_16 = DEFINED (__vector_dispatch_16)?(. - _ebase_address):__vector_offset_default
 *(.vector_16)
                0x00000210                __vector_offset_17 = DEFINED (__vector_dispatch_17)?(. - _ebase_address):__vector_offset_default
 *(.vector_17)
                0x00000210                __vector_offset_18 = DEFINED (__vector_dispatch_18)?(. - _ebase_address):__vector_offset_default
 *(.vector_18)
                0x00000210                __vector_offset_19 = DEFINED (__vector_dispatch_19)?(. - _ebase_address):__vector_offset_default
 *(.vector_19)
                0x00000210                __vector_offset_20 = DEFINED (__vector_dispatch_20)?(. - _ebase_address):__vector_offset_default
 *(.vector_20)
                0x00000210                __vector_offset_21 = DEFINED (__vector_dispatch_21)?(. - _ebase_address):__vector_offset_default
 *(.vector_21)
                0x00000210                __vector_offset_22 = DEFINED (__vector_dispatch_22)?(. - _ebase_address):__vector_offset_default
 *(.vector_22)
                0x00000210                __vector_offset_23 = DEFINED (__vector_dispatch_23)?(. - _ebase_address):__vector_offset_default
 *(.vector_23)
                0x00000210                __vector_offset_24 = DEFINED (__vector_dispatch_24)?(. - _ebase_address):__vector_offset_default
 *(.vector_24)
                0x00000210                __vector_offset_25 = DEFINED (__vector_dispatch_25)?(. - _ebase_address):__vector_offset_default
 *(.vector_25)
                0x00000210                __vector_offset_26 = DEFINED (__vector_dispatch_26)?(. - _ebase_address):__vector_offset_default
 *(.vector_26)
                0x00000210                __vector_offset_27 = DEFINED (__vector_dispatch_27)?(. - _ebase_address):__vector_offset_default
 *(.vector_27)
                0x00000210                __vector_offset_28 = DEFINED (__vector_dispatch_28)?(. - _ebase_address):__vector_offset_default
 *(.vector_28)
                0x00000210                __vector_offset_29 = DEFINED (__vector_dispatch_29)?(. - _ebase_address):__vector_offset_default
 *(.vector_29)
                0x00000210                __vector_offset_30 = DEFINED (__vector_dispatch_30)?(. - _ebase_address):__vector_offset_default
 *(.vector_30)
                0x00000210                __vector_offset_31 = DEFINED (__vector_dispatch_31)?(. - _ebase_address):__vector_offset_default
 *(.vector_31)
                0x00000210                __vector_offset_32 = DEFINED (__vector_dispatch_32)?(. - _ebase_address):__vector_offset_default
 *(.vector_32)
                0x00000210                __vector_offset_33 = DEFINED (__vector_dispatch_33)?(. - _ebase_address):__vector_offset_default
 *(.vector_33)
                0x00000210                __vector_offset_34 = DEFINED (__vector_dispatch_34)?(. - _ebase_address):__vector_offset_default
 *(.vector_34)
                0x00000210                __vector_offset_35 = DEFINED (__vector_dispatch_35)?(. - _ebase_address):__vector_offset_default
 *(.vector_35)
                0x00000210                __vector_offset_36 = DEFINED (__vector_dispatch_36)?(. - _ebase_address):__vector_offset_default
 *(.vector_36)
                0x00000210                __vector_offset_37 = DEFINED (__vector_dispatch_37)?(. - _ebase_address):__vector_offset_default
 *(.vector_37)
                0x00000210                __vector_offset_38 = DEFINED (__vector_dispatch_38)?(. - _ebase_address):__vector_offset_default
 *(.vector_38)
                0x00000210                __vector_offset_39 = DEFINED (__vector_dispatch_39)?(. - _ebase_address):__vector_offset_default
 *(.vector_39)
                0x00000210                __vector_offset_40 = DEFINED (__vector_dispatch_40)?(. - _ebase_address):__vector_offset_default
 *(.vector_40)
                0x00000210                __vector_offset_41 = DEFINED (__vector_dispatch_41)?(. - _ebase_address):__vector_offset_default
 *(.vector_41)
                0x00000210                __vector_offset_42 = DEFINED (__vector_dispatch_42)?(. - _ebase_address):__vector_offset_default
 *(.vector_42)
                0x00000210                __vector_offset_43 = DEFINED (__vector_dispatch_43)?(. - _ebase_address):__vector_offset_default
 *(.vector_43)
                0x00000210                __vector_offset_44 = DEFINED (__vector_dispatch_44)?(. - _ebase_address):__vector_offset_default
 *(.vector_44)
                0x00000210                __vector_offset_45 = DEFINED (__vector_dispatch_45)?(. - _ebase_address):__vector_offset_default
 *(.vector_45)
                0x00000210                __vector_offset_46 = DEFINED (__vector_dispatch_46)?(. - _ebase_address):__vector_offset_default
 *(.vector_46)
                0x00000210                __vector_offset_47 = DEFINED (__vector_dispatch_47)?(. - _ebase_address):__vector_offset_default
 *(.vector_47)
                0x00000210                __vector_offset_48 = DEFINED (__vector_dispatch_48)?(. - _ebase_address):__vector_offset_default
 *(.vector_48)
                0x00000210                __vector_offset_49 = DEFINED (__vector_dispatch_49)?(. - _ebase_address):__vector_offset_default
 *(.vector_49)
                0x00000210                __vector_offset_50 = DEFINED (__vector_dispatch_50)?(. - _ebase_address):__vector_offset_default
 *(.vector_50)
                0x00000210                __vector_offset_51 = DEFINED (__vector_dispatch_51)?(. - _ebase_address):__vector_offset_default
 *(.vector_51)
                0x00000210                __vector_offset_52 = DEFINED (__vector_dispatch_52)?(. - _ebase_address):__vector_offset_default
 *(.vector_52)
                0x00000210                __vector_offset_53 = DEFINED (__vector_dispatch_53)?(. - _ebase_address):__vector_offset_default
 *(.vector_53)
                0x00000210                __vector_offset_54 = DEFINED (__vector_dispatch_54)?(. - _ebase_address):__vector_offset_default
 *(.vector_54)
                0x00000210                __vector_offset_55 = DEFINED (__vector_dispatch_55)?(. - _ebase_address):__vector_offset_default
 *(.vector_55)
                0x00000210                __vector_offset_56 = DEFINED (__vector_dispatch_56)?(. - _ebase_address):__vector_offset_default
 *(.vector_56)
                0x00000210                __vector_offset_57 = DEFINED (__vector_dispatch_57)?(. - _ebase_address):__vector_offset_default
 *(.vector_57)
                0x00000210                __vector_offset_58 = DEFINED (__vector_dispatch_58)?(. - _ebase_address):__vector_offset_default
 *(.vector_58)
                0x00000210                __vector_offset_59 = DEFINED (__vector_dispatch_59)?(. - _ebase_address):__vector_offset_default
 *(.vector_59)
                0x00000210                __vector_offset_60 = DEFINED (__vector_dispatch_60)?(. - _ebase_address):__vector_offset_default
 *(.vector_60)
                0x00000210                __vector_offset_61 = DEFINED (__vector_dispatch_61)?(. - _ebase_address):__vector_offset_default
 *(.vector_61)
                0x00000210                __vector_offset_62 = DEFINED (__vector_dispatch_62)?(. - _ebase_address):__vector_offset_default
 *(.vector_62)
                0x00000210                __vector_offset_63 = DEFINED (__vector_dispatch_63)?(. - _ebase_address):__vector_offset_default
 *(.vector_63)
                0x00000210                __vector_offset_64 = DEFINED (__vector_dispatch_64)?(. - _ebase_address):__vector_offset_default
 *(.vector_64)
                0x00000210                __vector_offset_65 = DEFINED (__vector_dispatch_65)?(. - _ebase_address):__vector_offset_default
 *(.vector_65)
                0x00000210                __vector_offset_66 = DEFINED (__vector_dispatch_66)?(. - _ebase_address):__vector_offset_default
 *(.vector_66)
                0x00000210                __vector_offset_67 = DEFINED (__vector_dispatch_67)?(. - _ebase_address):__vector_offset_default
 *(.vector_67)
                0x00000210                __vector_offset_68 = DEFINED (__vector_dispatch_68)?(. - _ebase_address):__vector_offset_default
 *(.vector_68)
                0x00000210                __vector_offset_69 = DEFINED (__vector_dispatch_69)?(. - _ebase_address):__vector_offset_default
 *(.vector_69)
                0x00000210                __vector_offset_70 = DEFINED (__vector_dispatch_70)?(. - _ebase_address):__vector_offset_default
 *(.vector_70)
                0x00000210                __vector_offset_71 = DEFINED (__vector_dispatch_71)?(. - _ebase_address):__vector_offset_default
 *(.vector_71)
                0x00000210                __vector_offset_72 = DEFINED (__vector_dispatch_72)?(. - _ebase_address):__vector_offset_default
 *(.vector_72)
                0x00000210                __vector_offset_73 = DEFINED (__vector_dispatch_73)?(. - _ebase_address):__vector_offset_default
 *(.vector_73)
                0x00000210                __vector_offset_74 = DEFINED (__vector_dispatch_74)?(. - _ebase_address):__vector_offset_default
 *(.vector_74)
                0x00000210                __vector_offset_75 = DEFINED (__vector_dispatch_75)?(. - _ebase_address):__vector_offset_default
 *(.vector_75)
                0x00000210                __vector_offset_76 = DEFINED (__vector_dispatch_76)?(. - _ebase_address):__vector_offset_default
 *(.vector_76)
                0x00000210                __vector_offset_77 = DEFINED (__vector_dispatch_77)?(. - _ebase_address):__vector_offset_default
 *(.vector_77)
                0x00000210                __vector_offset_78 = DEFINED (__vector_dispatch_78)?(. - _ebase_address):__vector_offset_default
 *(.vector_78)
                0x00000210                __vector_offset_79 = DEFINED (__vector_dispatch_79)?(. - _ebase_address):__vector_offset_default
 *(.vector_79)
                0x00000210                __vector_offset_80 = DEFINED (__vector_dispatch_80)?(. - _ebase_address):__vector_offset_default
 *(.vector_80)
                0x00000210                __vector_offset_81 = DEFINED (__vector_dispatch_81)?(. - _ebase_address):__vector_offset_default
 *(.vector_81)
                0x00000210                __vector_offset_82 = DEFINED (__vector_dispatch_82)?(. - _ebase_address):__vector_offset_default
 *(.vector_82)
                0x00000210                __vector_offset_83 = DEFINED (__vector_dispatch_83)?(. - _ebase_address):__vector_offset_default
 *(.vector_83)
                0x00000210                __vector_offset_84 = DEFINED (__vector_dispatch_84)?(. - _ebase_address):__vector_offset_default
 *(.vector_84)
                0x00000210                __vector_offset_85 = DEFINED (__vector_dispatch_85)?(. - _ebase_address):__vector_offset_default
 *(.vector_85)
                0x00000210                __vector_offset_86 = DEFINED (__vector_dispatch_86)?(. - _ebase_address):__vector_offset_default
 *(.vector_86)
                0x00000210                __vector_offset_87 = DEFINED (__vector_dispatch_87)?(. - _ebase_address):__vector_offset_default
 *(.vector_87)
                0x00000210                __vector_offset_88 = DEFINED (__vector_dispatch_88)?(. - _ebase_address):__vector_offset_default
 *(.vector_88)
                0x00000210                __vector_offset_89 = DEFINED (__vector_dispatch_89)?(. - _ebase_address):__vector_offset_default
 *(.vector_89)
                0x00000210                __vector_offset_90 = DEFINED (__vector_dispatch_90)?(. - _ebase_address):__vector_offset_default
 *(.vector_90)
                0x00000210                __vector_offset_91 = DEFINED (__vector_dispatch_91)?(. - _ebase_address):__vector_offset_default
 *(.vector_91)
                0x00000210                __vector_offset_92 = DEFINED (__vector_dispatch_92)?(. - _ebase_address):__vector_offset_default
 *(.vector_92)
                0x00000210                __vector_offset_93 = DEFINED (__vector_dispatch_93)?(. - _ebase_address):__vector_offset_default
 *(.vector_93)
                0x00000210                __vector_offset_94 = DEFINED (__vector_dispatch_94)?(. - _ebase_address):__vector_offset_default
 *(.vector_94)
                0x00000210                __vector_offset_95 = DEFINED (__vector_dispatch_95)?(. - _ebase_address):__vector_offset_default
 *(.vector_95)
                0x00000210                __vector_offset_96 = DEFINED (__vector_dispatch_96)?(. - _ebase_address):__vector_offset_default
 *(.vector_96)
                0x00000210                __vector_offset_97 = DEFINED (__vector_dispatch_97)?(. - _ebase_address):__vector_offset_default
 *(.vector_97)
                0x00000210                __vector_offset_98 = DEFINED (__vector_dispatch_98)?(. - _ebase_address):__vector_offset_default
 *(.vector_98)
                0x00000210                __vector_offset_99 = DEFINED (__vector_dispatch_99)?(. - _ebase_address):__vector_offset_default
 *(.vector_99)
                0x00000210                __vector_offset_100 = DEFINED (__vector_dispatch_100)?(. - _ebase_address):__vector_offset_default
 *(.vector_100)
                0x00000210                __vector_offset_101 = DEFINED (__vector_dispatch_101)?(. - _ebase_address):__vector_offset_default
 *(.vector_101)
                0x00000210                __vector_offset_102 = DEFINED (__vector_dispatch_102)?(. - _ebase_address):__vector_offset_default
 *(.vector_102)
                0x00000210                __vector_offset_103 = DEFINED (__vector_dispatch_103)?(. - _ebase_address):__vector_offset_default
 *(.vector_103)
                0x00000210                __vector_offset_104 = DEFINED (__vector_dispatch_104)?(. - _ebase_address):__vector_offset_default
 *(.vector_104)
                0x00000210                __vector_offset_105 = DEFINED (__vector_dispatch_105)?(. - _ebase_address):__vector_offset_default
 *(.vector_105)
                0x00000210                __vector_offset_106 = DEFINED (__vector_dispatch_106)?(. - _ebase_address):__vector_offset_default
 *(.vector_106)
                0x00000210                __vector_offset_107 = DEFINED (__vector_dispatch_107)?(. - _ebase_address):__vector_offset_default
 *(.vector_107)
                0x00000210                __vector_offset_108 = DEFINED (__vector_dispatch_108)?(. - _ebase_address):__vector_offset_default
 *(.vector_108)
                0x00000210                __vector_offset_109 = DEFINED (__vector_dispatch_109)?(. - _ebase_address):__vector_offset_default
 *(.vector_109)
                0x00000210                __vector_offset_110 = DEFINED (__vector_dispatch_110)?(. - _ebase_address):__vector_offset_default
 *(.vector_110)
                0x00000210                __vector_offset_111 = DEFINED (__vector_dispatch_111)?(. - _ebase_address):__vector_offset_default
 *(.vector_111)
                0x00000210                __vector_offset_112 = DEFINED (__vector_dispatch_112)?(. - _ebase_address):__vector_offset_default
 *(.vector_112)
                0x00000210                __vector_offset_113 = DEFINED (__vector_dispatch_113)?(. - _ebase_address):__vector_offset_default
 *(.vector_113)
                0x00000210                __vector_offset_114 = DEFINED (__vector_dispatch_114)?(. - _ebase_address):__vector_offset_default
 *(.vector_114)
                0x00000210                __vector_offset_115 = DEFINED (__vector_dispatch_115)?(. - _ebase_address):__vector_offset_default
 *(.vector_115)
                0x00000210                __vector_offset_116 = DEFINED (__vector_dispatch_116)?(. - _ebase_address):__vector_offset_default
 *(.vector_116)
                0x00000210                __vector_offset_117 = DEFINED (__vector_dispatch_117)?(. - _ebase_address):__vector_offset_default
 *(.vector_117)
                0x00000210                __vector_offset_118 = DEFINED (__vector_dispatch_118)?(. - _ebase_address):__vector_offset_default
 *(.vector_118)
                0x00000210                __vector_offset_119 = DEFINED (__vector_dispatch_119)?(. - _ebase_address):__vector_offset_default
 *(.vector_119)
                0x00000210                __vector_offset_120 = DEFINED (__vector_dispatch_120)?(. - _ebase_address):__vector_offset_default
 *(.vector_120)
                0x00000210                __vector_offset_121 = DEFINED (__vector_dispatch_121)?(. - _ebase_address):__vector_offset_default
 *(.vector_121)
                0x00000210                __vector_offset_122 = DEFINED (__vector_dispatch_122)?(. - _ebase_address):__vector_offset_default
 *(.vector_122)
                0x00000210                __vector_offset_123 = DEFINED (__vector_dispatch_123)?(. - _ebase_address):__vector_offset_default
 *(.vector_123)
                0x00000210                __vector_offset_124 = DEFINED (__vector_dispatch_124)?(. - _ebase_address):__vector_offset_default
 *(.vector_124)
                0x00000210                __vector_offset_125 = DEFINED (__vector_dispatch_125)?(. - _ebase_address):__vector_offset_default
 *(.vector_125)
                0x00000210                __vector_offset_126 = DEFINED (__vector_dispatch_126)?(. - _ebase_address):__vector_offset_default
 *(.vector_126)
                0x00000210                __vector_offset_127 = DEFINED (__vector_dispatch_127)?(. - _ebase_address):__vector_offset_default
 *(.vector_127)
                0x00000210                __vector_offset_128 = DEFINED (__vector_dispatch_128)?(. - _ebase_address):__vector_offset_default
 *(.vector_128)
                0x00000210                __vector_offset_129 = DEFINED (__vector_dispatch_129)?(. - _ebase_address):__vector_offset_default
 *(.vector_129)
                0x00000210                __vector_offset_130 = DEFINED (__vector_dispatch_130)?(. - _ebase_address):__vector_offset_default
 *(.vector_130)
                0x00000210                __vector_offset_131 = DEFINED (__vector_dispatch_131)?(. - _ebase_address):__vector_offset_default
 *(.vector_131)
                0x00000210                __vector_offset_132 = DEFINED (__vector_dispatch_132)?(. - _ebase_address):__vector_offset_default
 *(.vector_132)
                0x00000210                __vector_offset_133 = DEFINED (__vector_dispatch_133)?(. - _ebase_address):__vector_offset_default
 *(.vector_133)
                0x00000210                __vector_offset_134 = DEFINED (__vector_dispatch_134)?(. - _ebase_address):__vector_offset_default
 *(.vector_134)
                0x00000210                __vector_offset_135 = DEFINED (__vector_dispatch_135)?(. - _ebase_address):__vector_offset_default
 *(.vector_135)
                0x00000210                __vector_offset_136 = DEFINED (__vector_dispatch_136)?(. - _ebase_address):__vector_offset_default
 *(.vector_136)
                0x00000210                __vector_offset_137 = DEFINED (__vector_dispatch_137)?(. - _ebase_address):__vector_offset_default
 *(.vector_137)
                0x00000210                __vector_offset_138 = DEFINED (__vector_dispatch_138)?(. - _ebase_address):__vector_offset_default
 *(.vector_138)
                0x00000210                __vector_offset_139 = DEFINED (__vector_dispatch_139)?(. - _ebase_address):__vector_offset_default
 *(.vector_139)
                0x00000210                __vector_offset_140 = DEFINED (__vector_dispatch_140)?(. - _ebase_address):__vector_offset_default
 *(.vector_140)
                0x00000210                __vector_offset_141 = DEFINED (__vector_dispatch_141)?(. - _ebase_address):__vector_offset_default
 *(.vector_141)
                0x00000210                __vector_offset_142 = DEFINED (__vector_dispatch_142)?(. - _ebase_address):__vector_offset_default
 *(.vector_142)
                0x00000210                __vector_offset_143 = DEFINED (__vector_dispatch_143)?(. - _ebase_address):__vector_offset_default
 *(.vector_143)
                0x00000210                __vector_offset_144 = DEFINED (__vector_dispatch_144)?(. - _ebase_address):__vector_offset_default
 *(.vector_144)
                0x00000210                __vector_offset_145 = DEFINED (__vector_dispatch_145)?(. - _ebase_address):__vector_offset_default
 *(.vector_145)
                0x00000210                __vector_offset_146 = DEFINED (__vector_dispatch_146)?(. - _ebase_address):__vector_offset_default
 *(.vector_146)
                0x00000210                __vector_offset_147 = DEFINED (__vector_dispatch_147)?(. - _ebase_address):__vector_offset_default
 *(.vector_147)
                0x00000210                __vector_offset_148 = DEFINED (__vector_dispatch_148)?(. - _ebase_address):__vector_offset_default
 *(.vector_148)
                0x00000210                __vector_offset_149 = DEFINED (__vector_dispatch_149)?(. - _ebase_address):__vector_offset_default
 *(.vector_149)
                0x00000210                __vector_offset_150 = DEFINED (__vector_dispatch_150)?(. - _ebase_address):__vector_offset_default
 *(.vector_150)
                0x00000210                __vector_offset_151 = DEFINED (__vector_dispatch_151)?(. - _ebase_address):__vector_offset_default
 *(.vector_151)
                0x00000210                __vector_offset_152 = DEFINED (__vector_dispatch_152)?(. - _ebase_address):__vector_offset_default
 *(.vector_152)
                0x00000208                __vector_offset_153 = DEFINED (__vector_dispatch_153)?(. - _ebase_address):__vector_offset_default
 *(.vector_153)
 .vector_153    0x9fc01208        0x8 build/udp_pic32mz_ef_sk/production/_ext/2145045400/system_interrupt.o
                0x9fc01208                __vector_dispatch_153
                0x00000210                __vector_offset_154 = DEFINED (__vector_dispatch_154)?(. - _ebase_address):__vector_offset_default
 *(.vector_154)
                0x00000210                __vector_offset_155 = DEFINED (__vector_dispatch_155)?(. - _ebase_address):__vector_offset_default
 *(.vector_155)
                0x00000210                __vector_offset_156 = DEFINED (__vector_dispatch_156)?(. - _ebase_address):__vector_offset_default
 *(.vector_156)
                0x00000210                __vector_offset_157 = DEFINED (__vector_dispatch_157)?(. - _ebase_address):__vector_offset_default
 *(.vector_157)
                0x00000210                __vector_offset_158 = DEFINED (__vector_dispatch_158)?(. - _ebase_address):__vector_offset_default
 *(.vector_158)
                0x00000210                __vector_offset_159 = DEFINED (__vector_dispatch_159)?(. - _ebase_address):__vector_offset_default
 *(.vector_159)
                0x00000210                __vector_offset_160 = DEFINED (__vector_dispatch_160)?(. - _ebase_address):__vector_offset_default
 *(.vector_160)
                0x00000210                __vector_offset_161 = DEFINED (__vector_dispatch_161)?(. - _ebase_address):__vector_offset_default
 *(.vector_161)
                0x00000210                __vector_offset_162 = DEFINED (__vector_dispatch_162)?(. - _ebase_address):__vector_offset_default
 *(.vector_162)
                0x00000210                __vector_offset_163 = DEFINED (__vector_dispatch_163)?(. - _ebase_address):__vector_offset_default
 *(.vector_163)
                0x00000210                __vector_offset_164 = DEFINED (__vector_dispatch_164)?(. - _ebase_address):__vector_offset_default
 *(.vector_164)
                0x00000210                __vector_offset_165 = DEFINED (__vector_dispatch_165)?(. - _ebase_address):__vector_offset_default
 *(.vector_165)
                0x00000210                __vector_offset_166 = DEFINED (__vector_dispatch_166)?(. - _ebase_address):__vector_offset_default
 *(.vector_166)
                0x00000210                __vector_offset_167 = DEFINED (__vector_dispatch_167)?(. - _ebase_address):__vector_offset_default
 *(.vector_167)
                0x00000210                __vector_offset_168 = DEFINED (__vector_dispatch_168)?(. - _ebase_address):__vector_offset_default
 *(.vector_168)
                0x00000210                __vector_offset_169 = DEFINED (__vector_dispatch_169)?(. - _ebase_address):__vector_offset_default
 *(.vector_169)
                0x00000210                __vector_offset_170 = DEFINED (__vector_dispatch_170)?(. - _ebase_address):__vector_offset_default
 *(.vector_170)
                0x00000210                __vector_offset_171 = DEFINED (__vector_dispatch_171)?(. - _ebase_address):__vector_offset_default
 *(.vector_171)
                0x00000210                __vector_offset_172 = DEFINED (__vector_dispatch_172)?(. - _ebase_address):__vector_offset_default
 *(.vector_172)
                0x00000210                __vector_offset_173 = DEFINED (__vector_dispatch_173)?(. - _ebase_address):__vector_offset_default
 *(.vector_173)
                0x00000210                __vector_offset_174 = DEFINED (__vector_dispatch_174)?(. - _ebase_address):__vector_offset_default
 *(.vector_174)
                0x00000210                __vector_offset_175 = DEFINED (__vector_dispatch_175)?(. - _ebase_address):__vector_offset_default
 *(.vector_175)
                0x00000210                __vector_offset_176 = DEFINED (__vector_dispatch_176)?(. - _ebase_address):__vector_offset_default
 *(.vector_176)
                0x00000210                __vector_offset_177 = DEFINED (__vector_dispatch_177)?(. - _ebase_address):__vector_offset_default
 *(.vector_177)
                0x00000210                __vector_offset_178 = DEFINED (__vector_dispatch_178)?(. - _ebase_address):__vector_offset_default
 *(.vector_178)
                0x00000210                __vector_offset_179 = DEFINED (__vector_dispatch_179)?(. - _ebase_address):__vector_offset_default
 *(.vector_179)
                0x00000210                __vector_offset_180 = DEFINED (__vector_dispatch_180)?(. - _ebase_address):__vector_offset_default
 *(.vector_180)
                0x00000210                __vector_offset_181 = DEFINED (__vector_dispatch_181)?(. - _ebase_address):__vector_offset_default
 *(.vector_181)
                0x00000210                __vector_offset_182 = DEFINED (__vector_dispatch_182)?(. - _ebase_address):__vector_offset_default
 *(.vector_182)
                0x00000210                __vector_offset_183 = DEFINED (__vector_dispatch_183)?(. - _ebase_address):__vector_offset_default
 *(.vector_183)
                0x00000210                __vector_offset_184 = DEFINED (__vector_dispatch_184)?(. - _ebase_address):__vector_offset_default
 *(.vector_184)
                0x00000210                __vector_offset_185 = DEFINED (__vector_dispatch_185)?(. - _ebase_address):__vector_offset_default
 *(.vector_185)
                0x00000210                __vector_offset_186 = DEFINED (__vector_dispatch_186)?(. - _ebase_address):__vector_offset_default
 *(.vector_186)
                0x00000210                __vector_offset_187 = DEFINED (__vector_dispatch_187)?(. - _ebase_address):__vector_offset_default
 *(.vector_187)
                0x00000210                __vector_offset_188 = DEFINED (__vector_dispatch_188)?(. - _ebase_address):__vector_offset_default
 *(.vector_188)
                0x00000210                __vector_offset_189 = DEFINED (__vector_dispatch_189)?(. - _ebase_address):__vector_offset_default
 *(.vector_189)
                0x00000210                __vector_offset_190 = DEFINED (__vector_dispatch_190)?(. - _ebase_address):__vector_offset_default
 *(.vector_190)
                0x00000210                __vector_offset_191 = DEFINED (__vector_dispatch_191)?(. - _ebase_address):__vector_offset_default
 *(.vector_191)
                0x00000210                __vector_offset_192 = DEFINED (__vector_dispatch_192)?(. - _ebase_address):__vector_offset_default
 *(.vector_192)
                0x00000210                __vector_offset_193 = DEFINED (__vector_dispatch_193)?(. - _ebase_address):__vector_offset_default
 *(.vector_193)
                0x00000210                __vector_offset_194 = DEFINED (__vector_dispatch_194)?(. - _ebase_address):__vector_offset_default
 *(.vector_194)
                0x00000210                __vector_offset_195 = DEFINED (__vector_dispatch_195)?(. - _ebase_address):__vector_offset_default
 *(.vector_195)
                0x00000210                __vector_offset_196 = DEFINED (__vector_dispatch_196)?(. - _ebase_address):__vector_offset_default
 *(.vector_196)
                0x00000210                __vector_offset_197 = DEFINED (__vector_dispatch_197)?(. - _ebase_address):__vector_offset_default
 *(.vector_197)
                0x00000210                __vector_offset_198 = DEFINED (__vector_dispatch_198)?(. - _ebase_address):__vector_offset_default
 *(.vector_198)
                0x00000210                __vector_offset_199 = DEFINED (__vector_dispatch_199)?(. - _ebase_address):__vector_offset_default
 *(.vector_199)
                0x00000210                __vector_offset_200 = DEFINED (__vector_dispatch_200)?(. - _ebase_address):__vector_offset_default
 *(.vector_200)
                0x00000210                __vector_offset_201 = DEFINED (__vector_dispatch_201)?(. - _ebase_address):__vector_offset_default
 *(.vector_201)
                0x00000210                __vector_offset_202 = DEFINED (__vector_dispatch_202)?(. - _ebase_address):__vector_offset_default
 *(.vector_202)
                0x00000210                __vector_offset_203 = DEFINED (__vector_dispatch_203)?(. - _ebase_address):__vector_offset_default
 *(.vector_203)
                0x00000210                __vector_offset_204 = DEFINED (__vector_dispatch_204)?(. - _ebase_address):__vector_offset_default
 *(.vector_204)
                0x00000210                __vector_offset_205 = DEFINED (__vector_dispatch_205)?(. - _ebase_address):__vector_offset_default
 *(.vector_205)
                0x00000210                __vector_offset_206 = DEFINED (__vector_dispatch_206)?(. - _ebase_address):__vector_offset_default
 *(.vector_206)
                0x00000210                __vector_offset_207 = DEFINED (__vector_dispatch_207)?(. - _ebase_address):__vector_offset_default
 *(.vector_207)
                0x00000210                __vector_offset_208 = DEFINED (__vector_dispatch_208)?(. - _ebase_address):__vector_offset_default
 *(.vector_208)
                0x00000210                __vector_offset_209 = DEFINED (__vector_dispatch_209)?(. - _ebase_address):__vector_offset_default
 *(.vector_209)
                0x00000210                __vector_offset_210 = DEFINED (__vector_dispatch_210)?(. - _ebase_address):__vector_offset_default
 *(.vector_210)
                0x00000210                __vector_offset_211 = DEFINED (__vector_dispatch_211)?(. - _ebase_address):__vector_offset_default
 *(.vector_211)
                0x00000210                __vector_offset_212 = DEFINED (__vector_dispatch_212)?(. - _ebase_address):__vector_offset_default
 *(.vector_212)
                0x00000210                __vector_offset_213 = DEFINED (__vector_dispatch_213)?(. - _ebase_address):__vector_offset_default
 *(.vector_213)
                0x00000210                __vector_offset_214 = DEFINED (__vector_dispatch_214)?(. - _ebase_address):__vector_offset_default
 *(.vector_214)
                0x00000210                __vector_offset_215 = DEFINED (__vector_dispatch_215)?(. - _ebase_address):__vector_offset_default
 *(.vector_215)
                0x00000210                __vector_offset_216 = DEFINED (__vector_dispatch_216)?(. - _ebase_address):__vector_offset_default
 *(.vector_216)
                0x00000210                __vector_offset_217 = DEFINED (__vector_dispatch_217)?(. - _ebase_address):__vector_offset_default
 *(.vector_217)
                0x00000210                __vector_offset_218 = DEFINED (__vector_dispatch_218)?(. - _ebase_address):__vector_offset_default
 *(.vector_218)
                0x00000210                __vector_offset_219 = DEFINED (__vector_dispatch_219)?(. - _ebase_address):__vector_offset_default
 *(.vector_219)
                0x00000210                __vector_offset_220 = DEFINED (__vector_dispatch_220)?(. - _ebase_address):__vector_offset_default
 *(.vector_220)
                0x00000210                __vector_offset_221 = DEFINED (__vector_dispatch_221)?(. - _ebase_address):__vector_offset_default
 *(.vector_221)
                0x00000210                __vector_offset_222 = DEFINED (__vector_dispatch_222)?(. - _ebase_address):__vector_offset_default
 *(.vector_222)
                0x00000210                __vector_offset_223 = DEFINED (__vector_dispatch_223)?(. - _ebase_address):__vector_offset_default
 *(.vector_223)
                0x00000210                __vector_offset_224 = DEFINED (__vector_dispatch_224)?(. - _ebase_address):__vector_offset_default
 *(.vector_224)
                0x00000210                __vector_offset_225 = DEFINED (__vector_dispatch_225)?(. - _ebase_address):__vector_offset_default
 *(.vector_225)
                0x00000210                __vector_offset_226 = DEFINED (__vector_dispatch_226)?(. - _ebase_address):__vector_offset_default
 *(.vector_226)
                0x00000210                __vector_offset_227 = DEFINED (__vector_dispatch_227)?(. - _ebase_address):__vector_offset_default
 *(.vector_227)
                0x00000210                __vector_offset_228 = DEFINED (__vector_dispatch_228)?(. - _ebase_address):__vector_offset_default
 *(.vector_228)
                0x00000210                __vector_offset_229 = DEFINED (__vector_dispatch_229)?(. - _ebase_address):__vector_offset_default
 *(.vector_229)
                0x00000210                __vector_offset_230 = DEFINED (__vector_dispatch_230)?(. - _ebase_address):__vector_offset_default
 *(.vector_230)
                0x00000210                __vector_offset_231 = DEFINED (__vector_dispatch_231)?(. - _ebase_address):__vector_offset_default
 *(.vector_231)
                0x00000210                __vector_offset_232 = DEFINED (__vector_dispatch_232)?(. - _ebase_address):__vector_offset_default
 *(.vector_232)
                0x00000210                __vector_offset_233 = DEFINED (__vector_dispatch_233)?(. - _ebase_address):__vector_offset_default
 *(.vector_233)
                0x00000210                __vector_offset_234 = DEFINED (__vector_dispatch_234)?(. - _ebase_address):__vector_offset_default
 *(.vector_234)
                0x00000210                __vector_offset_235 = DEFINED (__vector_dispatch_235)?(. - _ebase_address):__vector_offset_default
 *(.vector_235)
                0x00000210                __vector_offset_236 = DEFINED (__vector_dispatch_236)?(. - _ebase_address):__vector_offset_default
 *(.vector_236)
                0x00000210                __vector_offset_237 = DEFINED (__vector_dispatch_237)?(. - _ebase_address):__vector_offset_default
 *(.vector_237)
                0x00000210                __vector_offset_238 = DEFINED (__vector_dispatch_238)?(. - _ebase_address):__vector_offset_default
 *(.vector_238)
                0x00000210                __vector_offset_239 = DEFINED (__vector_dispatch_239)?(. - _ebase_address):__vector_offset_default
 *(.vector_239)
                0x00000210                __vector_offset_240 = DEFINED (__vector_dispatch_240)?(. - _ebase_address):__vector_offset_default
 *(.vector_240)
                0x00000210                __vector_offset_241 = DEFINED (__vector_dispatch_241)?(. - _ebase_address):__vector_offset_default
 *(.vector_241)
                0x00000210                __vector_offset_242 = DEFINED (__vector_dispatch_242)?(. - _ebase_address):__vector_offset_default
 *(.vector_242)
                0x00000210                __vector_offset_243 = DEFINED (__vector_dispatch_243)?(. - _ebase_address):__vector_offset_default
 *(.vector_243)
                0x00000210                __vector_offset_244 = DEFINED (__vector_dispatch_244)?(. - _ebase_address):__vector_offset_default
 *(.vector_244)
                0x00000210                __vector_offset_245 = DEFINED (__vector_dispatch_245)?(. - _ebase_address):__vector_offset_default
 *(.vector_245)
                0x00000210                __vector_offset_246 = DEFINED (__vector_dispatch_246)?(. - _ebase_address):__vector_offset_default
 *(.vector_246)
                0x00000210                __vector_offset_247 = DEFINED (__vector_dispatch_247)?(. - _ebase_address):__vector_offset_default
 *(.vector_247)
                0x00000210                __vector_offset_248 = DEFINED (__vector_dispatch_248)?(. - _ebase_address):__vector_offset_default
 *(.vector_248)
                0x00000210                __vector_offset_249 = DEFINED (__vector_dispatch_249)?(. - _ebase_address):__vector_offset_default
 *(.vector_249)
                0x00000210                __vector_offset_250 = DEFINED (__vector_dispatch_250)?(. - _ebase_address):__vector_offset_default
 *(.vector_250)
                0x00000210                __vector_offset_251 = DEFINED (__vector_dispatch_251)?(. - _ebase_address):__vector_offset_default
 *(.vector_251)
                0x00000210                __vector_offset_252 = DEFINED (__vector_dispatch_252)?(. - _ebase_address):__vector_offset_default
 *(.vector_252)
                0x00000210                __vector_offset_253 = DEFINED (__vector_dispatch_253)?(. - _ebase_address):__vector_offset_default
 *(.vector_253)
                0x00000210                __vector_offset_254 = DEFINED (__vector_dispatch_254)?(. - _ebase_address):__vector_offset_default
 *(.vector_254)
                0x00000210                __vector_offset_255 = DEFINED (__vector_dispatch_255)?(. - _ebase_address):__vector_offset_default
 *(.vector_255)
                0x00000210                __vector_offset_default = (. - _ebase_address)
 *(.vector_default)
 .vector_default
                0x9fc01210       0x48 c:/program files (x86)/microchip/xc32/v1.42/bin/bin/../../lib/gcc/pic32mx/4.8.3/../../../../pic32mx/lib/fpu64\libpic32.a(defaultinterrupt.o)
                0x9fc01210                _DefaultInterrupt

.startup
 *(.startup)

.text           0x9fc01258        0x0
 *(.stub .gnu.linkonce.t.*)
 *(.text.*personality*)
 *(.mips16.fn.*)
 *(.mips16.call.*)
 *(.gnu.warning)
                0x9fc01258                . = ALIGN (0x4)

.init           0x9fc01258        0x0
 *crti.o(.init)
 *crtbegin.o(.init)
 *(EXCLUDE_FILE(*crtn.o *crtend?.o *crtend.o) .init)
 *crtend.o(.init)
 *crtn.o(.init)
                0x9fc01258                . = ALIGN (0x4)

.fini           0x9fc01258        0x0
 *(.fini)
                0x9fc01258                . = ALIGN (0x4)

.preinit_array  0x9fc01258        0x0
                0x9fc01258                PROVIDE (__preinit_array_start, .)
 *(.preinit_array)
                0x9fc01258                PROVIDE (__preinit_array_end, .)
                0x9fc01258                . = ALIGN (0x4)

.init_array     0x9fc01258        0x0
                0x9fc01258                PROVIDE (__init_array_start, .)
 *(SORT(.init_array.*))
 *(.init_array)
                0x9fc01258                PROVIDE (__init_array_end, .)
                0x9fc01258                . = ALIGN (0x4)

.fini_array     0x9fc01258        0x0
                0x9fc01258                PROVIDE (__fini_array_start, .)
 *(SORT(.fini_array.*))
 *(.fini_array)
                0x9fc01258                PROVIDE (__fini_array_end, .)
                0x9fc01258                . = ALIGN (0x4)

.ctors          0x9fc01258        0x0
 *crtbegin.o(.ctors)
 *crtbegin?.o(.ctors)
 *(EXCLUDE_FILE(*crtend?.o *crtend.o) .ctors)
 *(SORT(.ctors.*))
 *(.ctors)
                0x9fc01258                . = ALIGN (0x4)

.dtors          0x9fc01258        0x0
 *crtbegin.o(.dtors)
 *crtbegin?.o(.dtors)
 *(EXCLUDE_FILE(*crtend?.o *crtend.o) .dtors)
 *(SORT(.dtors.*))
 *(.dtors)
                0x9fc01258                . = ALIGN (0x4)

.rodata         0x9fc01258        0x0
 *(.gnu.linkonce.r.*)
 *(.rodata1)
                0x9fc01258                . = ALIGN (0x4)

.sdata2         0x9fc004b0        0x0
 *(.sdata2 .sdata2.* .gnu.linkonce.s2.*)
                0x9fc004b0                . = ALIGN (0x4)

.sbss2          0x9fc004b0        0x0
 *(.sbss2 .sbss2.* .gnu.linkonce.sb2.*)
                0x9fc004b0                . = ALIGN (0x4)

.eh_frame_hdr
 *(.eh_frame_hdr)
                0x9fc004b0                . = ALIGN (0x4)

.eh_frame
 *(.eh_frame)
                0x9fc004b0                . = ALIGN (0x4)

.gcc_except_table
 *(.gcc_except_table .gcc_except_table.*)
                0x9fc004b0                . = ALIGN (0x4)

.dbg_data       0x80000000        0x0
                0x80000000                . = (. + DEFINED (_DEBUGGER)?0x200:0x0)
                0x80000000                . = (. + DEFINED (_DEBUGGER)?0x80:0x0)

.jcr            0x80000000        0x0
 *(.jcr)
                0x80000000                . = ALIGN (0x4)

.eh_frame
 *(.eh_frame)
                0x80000000                . = ALIGN (0x4)

.gcc_except_table
 *(.gcc_except_table .gcc_except_table.*)
                0x80000000                . = ALIGN (0x4)

.persist        0x80000000        0x0
                0x80000000                _persist_begin = .
 *(.persist .persist.*)
 *(.pbss .pbss.*)
                0x80000000                . = ALIGN (0x4)
                0x80000000                _persist_end = .

.data           0x80000000        0x0
 *(.gnu.linkonce.d.*)
 *(.data1)
                0x80000000                . = ALIGN (0x4)
                0x80000000                . = .
                0x80007ff0                _gp = (ALIGN (0x10) + 0x7ff0)

.got            0x80000000        0x0
 *(.got.plt)
 *(.got)
                0x80000000                . = ALIGN (0x4)

.sdata          0x80000000       0x3c
                0x80000000                _sdata_begin = .
 *(.sdata .sdata.* .gnu.linkonce.s.*)
 .sdata         0x80000000        0x8 build/udp_pic32mz_ef_sk/production/_ext/615392287/datastream_udp.o
 .sdata         0x80000008        0x8 build/udp_pic32mz_ef_sk/production/_ext/1164207549/arp.o
 .sdata         0x80000010        0x4 build/udp_pic32mz_ef_sk/production/_ext/1164207549/tcpip_manager.o
 .sdata         0x80000014       0x24 c:/program files (x86)/microchip/xc32/v1.42/bin/bin/../../lib/gcc/pic32mx/4.8.3/../../../../pic32mx/lib/fpu64\libpic32.a(pic32_init_cache.o)
                0x80000014                __pic32_icache_size
                0x80000018                __pic32_icache_linesize
                0x8000001c                __pic32_icache_ways
                0x80000020                __pic32_dcache_size
                0x80000024                __pic32_dcache_linesize
                0x80000028                __pic32_dcache_ways
                0x8000002c                __pic32_scache_size
                0x80000030                __pic32_scache_linesize
                0x80000034                __pic32_scache_ways
 .sdata         0x80000038        0x4 c:/program files (x86)/microchip/xc32/v1.42/bin/bin/../../lib/gcc/pic32mx/4.8.3/../../../../pic32mx/lib/fpu64\libpic32.a(xc32_uart.o)
                0x80000038                __XC_UART
                0x8000003c                . = ALIGN (0x4)
                0x8000003c                _sdata_end = .

.lit8
 *(.lit8)

.lit4
 *(.lit4)
                0x8000003c                . = ALIGN (0x4)
                0x8000003c                _data_end = .
                0x8000003c                _bss_begin = .

.sbss           0x8000003c       0xc4
                0x8000003c                _sbss_begin = .
 *(.dynsbss)
 *(.sbss .sbss.* .gnu.linkonce.sb.*)
 .sbss          0x8000003c        0xc build/udp_pic32mz_ef_sk/production/_ext/2145045400/system_exceptions.o
 .sbss          0x80000048        0x1 build/udp_pic32mz_ef_sk/production/_ext/615392287/datastream.o
 *fill*         0x80000049        0x3 
 .sbss          0x8000004c        0x4 build/udp_pic32mz_ef_sk/production/_ext/1697634946/drv_ethmac.o
 .sbss          0x80000050        0x8 build/udp_pic32mz_ef_sk/production/_ext/521481140/drv_ethphy.o
                0x80000050                _PhyStayCondLoop
                0x80000054                _PhyStayAssertLoop
 .sbss          0x80000058        0x4 build/udp_pic32mz_ef_sk/production/_ext/941160041/drv_tmr.o
 .sbss          0x8000005c       0x1c build/udp_pic32mz_ef_sk/production/_ext/1164207549/ipv4.o
                0x8000005c                _IPv4StayAssertLoop
 .sbss          0x80000078       0x1c build/udp_pic32mz_ef_sk/production/_ext/1164207549/udp.o
 .sbss          0x80000094       0x24 build/udp_pic32mz_ef_sk/production/_ext/1164207549/tcpip_manager.o
 .sbss          0x800000b8        0x8 build/udp_pic32mz_ef_sk/production/_ext/1164207549/tcpip_packet.o
 *(.scommon)
 .scommon       0x800000c0       0x28 build/udp_pic32mz_ef_sk/production/_ext/1991045727/sys_clk_pic32mz.o
                0x800000c0                _context
                0x800000c4                _txMaxSize
                0x800000c8                _rxCurSize
                0x800000cc                _bufferHandle
                0x800000d0                _txCurPos
                0x800000d4                handler
                0x800000d8                _txBuffer
                0x800000dc                _rxBuffer
                0x800000e0                _rxMaxSize
                0x800000e4                currDir
 .scommon       0x800000e8        0x8 build/udp_pic32mz_ef_sk/production/_ext/2092611130/sys_devcon.o
                0x800000e8                sysDevconObj
 .scommon       0x800000f0        0x0 build/udp_pic32mz_ef_sk/production/_ext/2145045400/system_init.o
 .scommon       0x800000f0        0x0 build/udp_pic32mz_ef_sk/production/_ext/2145045400/system_interrupt.o
 .scommon       0x800000f0        0x0 build/udp_pic32mz_ef_sk/production/_ext/2145045400/system_exceptions.o
 .scommon       0x800000f0        0x0 build/udp_pic32mz_ef_sk/production/_ext/2145045400/system_tasks.o
 .scommon       0x800000f0        0x0 build/udp_pic32mz_ef_sk/production/_ext/1360937237/app.o
 .scommon       0x800000f0        0x4 build/udp_pic32mz_ef_sk/production/_ext/615392287/datastream.o
                0x800000f0                datastreamModule
 .scommon       0x800000f4        0xa build/udp_pic32mz_ef_sk/production/_ext/615392287/datastream_udp.o
                0x800000f4                udpsocket
                0x800000f6                connected
                0x800000f8                _Port_Buffer
 .scommon       0x800000fe        0x0 build/udp_pic32mz_ef_sk/production/_ext/686445382/bootloader.o
 .scommon       0x800000fe        0x0 build/udp_pic32mz_ef_sk/production/_ext/1697634946/drv_ethmac.o
 .scommon       0x800000fe        0x0 build/udp_pic32mz_ef_sk/production/_ext/1697634946/drv_ethmac_lib.o
 .scommon       0x800000fe        0x0 build/udp_pic32mz_ef_sk/production/_ext/521481140/drv_ethphy.o
 .scommon       0x800000fe        0x0 build/udp_pic32mz_ef_sk/production/_ext/521481140/drv_extphy_smsc8740.o
 .scommon       0x800000fe        0x0 build/udp_pic32mz_ef_sk/production/_ext/941160041/drv_tmr.o
 .scommon       0x800000fe        0x0 build/udp_pic32mz_ef_sk/production/_ext/1164207549/ipv4.o
 .scommon       0x800000fe        0x0 build/udp_pic32mz_ef_sk/production/_ext/1164207549/udp.o
 .scommon       0x800000fe        0x0 build/udp_pic32mz_ef_sk/production/_ext/1164207549/tcpip_heap_alloc.o
 .scommon       0x800000fe        0x0 build/udp_pic32mz_ef_sk/production/_ext/1164207549/tcpip_heap_internal.o
 .scommon       0x800000fe        0x0 build/udp_pic32mz_ef_sk/production/_ext/1164207549/arp.o
 .scommon       0x800000fe        0x0 build/udp_pic32mz_ef_sk/production/_ext/1164207549/dhcp.o
 .scommon       0x800000fe        0x0 build/udp_pic32mz_ef_sk/production/_ext/1164207549/dns.o
 .scommon       0x800000fe        0x0 build/udp_pic32mz_ef_sk/production/_ext/1164207549/tcpip_helpers.o
 .scommon       0x800000fe        0x0 build/udp_pic32mz_ef_sk/production/_ext/1164207549/tcpip_manager.o
 .scommon       0x800000fe        0x0 build/udp_pic32mz_ef_sk/production/_ext/1164207549/tcpip_notify.o
 .scommon       0x800000fe        0x0 build/udp_pic32mz_ef_sk/production/_ext/1164207549/tcpip_packet.o
                0x800000fe                _sbss_end = .
                0x80000100                . = ALIGN (0x4)
 *fill*         0x800000fe        0x2 

.bss            0x80000100       0x1c
 *(.dynbss)
 *(COMMON)
 COMMON         0x80000100        0xc build/udp_pic32mz_ef_sk/production/_ext/2145045400/system_init.o
                0x80000100                sysObj
 COMMON         0x8000010c        0xf build/udp_pic32mz_ef_sk/production/_ext/615392287/datastream_udp.o
                0x8000010c                _Message_Buffer
                0x8000011c                . = ALIGN ((. != 0x0)?0x4:0x1)
 *fill*         0x8000011b        0x1 
                0x8000011c                . = ALIGN (0x4)
                0x8000011c                _end = .
                0x8000011c                _bss_end = .
                0x00080000                _bmxdudba_address = 0x80000
                0x00080000                _bmxdupba_address = 0x80000

/DISCARD/
 *(.pdr)
 *(.rel.dyn)
 *(.note.GNU-stack)
 *(.note.GNU-stack)
 *(.gnu_debuglink)
 *(.gnu.lto_*)
 *(.discard)
 *(._debug_exception)

.gptab.sdata
 *(.gptab.data)
 *(.gptab.sdata)

.gptab.sbss
 *(.gptab.bss)
 *(.gptab.sbss)

.mdebug.abi32   0x8000011c        0x0
 *(.mdebug.abi32)
 .mdebug.abi32  0x8000011c        0x0 build/udp_pic32mz_ef_sk/production/_ext/938613576/bsp.o
 .mdebug.abi32  0x8000011c        0x0 build/udp_pic32mz_ef_sk/production/_ext/1991045727/sys_clk_pic32mz.o
 .mdebug.abi32  0x8000011c        0x0 build/udp_pic32mz_ef_sk/production/_ext/2092611130/sys_devcon.o
 .mdebug.abi32  0x8000011c        0x0 build/udp_pic32mz_ef_sk/production/_ext/2092611130/sys_devcon_pic32mz.o
 .mdebug.abi32  0x8000011c        0x0 build/udp_pic32mz_ef_sk/production/_ext/1633430821/sys_memory_smc_static.o
 .mdebug.abi32  0x8000011c        0x0 build/udp_pic32mz_ef_sk/production/_ext/641914703/sys_ports_static.o
 .mdebug.abi32  0x8000011c        0x0 build/udp_pic32mz_ef_sk/production/_ext/1532728844/sys_reset.o
 .mdebug.abi32  0x8000011c        0x0 build/udp_pic32mz_ef_sk/production/_ext/2145045400/system_init.o
 .mdebug.abi32  0x8000011c        0x0 build/udp_pic32mz_ef_sk/production/_ext/2145045400/system_interrupt.o
 .mdebug.abi32  0x8000011c        0x0 build/udp_pic32mz_ef_sk/production/_ext/2145045400/system_exceptions.o
 .mdebug.abi32  0x8000011c        0x0 build/udp_pic32mz_ef_sk/production/_ext/2145045400/system_tasks.o
 .mdebug.abi32  0x8000011c        0x0 build/udp_pic32mz_ef_sk/production/_ext/1360937237/main.o
 .mdebug.abi32  0x8000011c        0x0 build/udp_pic32mz_ef_sk/production/_ext/1360937237/app.o
 .mdebug.abi32  0x8000011c        0x0 build/udp_pic32mz_ef_sk/production/_ext/615392287/datastream.o
 .mdebug.abi32  0x8000011c        0x0 build/udp_pic32mz_ef_sk/production/_ext/615392287/datastream_udp.o
 .mdebug.abi32  0x8000011c        0x0 build/udp_pic32mz_ef_sk/production/_ext/686445382/bootloader.o
 .mdebug.abi32  0x8000011c        0x0 build/udp_pic32mz_ef_sk/production/_ext/686445382/nvm.o
 .mdebug.abi32  0x8000011c        0x0 build/udp_pic32mz_ef_sk/production/_ext/1697634946/drv_ethmac.o
 .mdebug.abi32  0x8000011c        0x0 build/udp_pic32mz_ef_sk/production/_ext/1697634946/drv_ethmac_lib.o
 .mdebug.abi32  0x8000011c        0x0 build/udp_pic32mz_ef_sk/production/_ext/521481140/drv_ethphy.o
 .mdebug.abi32  0x8000011c        0x0 build/udp_pic32mz_ef_sk/production/_ext/521481140/drv_extphy_smsc8740.o
 .mdebug.abi32  0x8000011c        0x0 build/udp_pic32mz_ef_sk/production/_ext/941160041/drv_tmr.o
 .mdebug.abi32  0x8000011c        0x0 build/udp_pic32mz_ef_sk/production/_ext/1042686532/sys_int_pic32.o
 .mdebug.abi32  0x8000011c        0x0 build/udp_pic32mz_ef_sk/production/_ext/470001640/sys_random.o
 .mdebug.abi32  0x8000011c        0x0 build/udp_pic32mz_ef_sk/production/_ext/2110151058/sys_tmr.o
 .mdebug.abi32  0x8000011c        0x0 build/udp_pic32mz_ef_sk/production/_ext/1886247299/helpers.o
 .mdebug.abi32  0x8000011c        0x0 build/udp_pic32mz_ef_sk/production/_ext/1164207549/ipv4.o
 .mdebug.abi32  0x8000011c        0x0 build/udp_pic32mz_ef_sk/production/_ext/1164207549/udp.o
 .mdebug.abi32  0x8000011c        0x0 build/udp_pic32mz_ef_sk/production/_ext/1164207549/tcpip_heap_alloc.o
 .mdebug.abi32  0x8000011c        0x0 build/udp_pic32mz_ef_sk/production/_ext/1164207549/tcpip_heap_internal.o
 .mdebug.abi32  0x8000011c        0x0 build/udp_pic32mz_ef_sk/production/_ext/1164207549/arp.o
 .mdebug.abi32  0x8000011c        0x0 build/udp_pic32mz_ef_sk/production/_ext/1164207549/dhcp.o
 .mdebug.abi32  0x8000011c        0x0 build/udp_pic32mz_ef_sk/production/_ext/1164207549/dns.o
 .mdebug.abi32  0x8000011c        0x0 build/udp_pic32mz_ef_sk/production/_ext/1164207549/hash_fnv.o
 .mdebug.abi32  0x8000011c        0x0 build/udp_pic32mz_ef_sk/production/_ext/1164207549/oahash.o
 .mdebug.abi32  0x8000011c        0x0 build/udp_pic32mz_ef_sk/production/_ext/1164207549/tcpip_helpers.o
 .mdebug.abi32  0x8000011c        0x0 build/udp_pic32mz_ef_sk/production/_ext/1164207549/tcpip_manager.o
 .mdebug.abi32  0x8000011c        0x0 build/udp_pic32mz_ef_sk/production/_ext/1164207549/tcpip_notify.o
 .mdebug.abi32  0x8000011c        0x0 build/udp_pic32mz_ef_sk/production/_ext/1164207549/tcpip_packet.o
 .mdebug.abi32  0x8000011c        0x0 c:/program files (x86)/microchip/xc32/v1.42/bin/bin/../../lib/gcc/pic32mx/4.8.3/fpu64\libgcc.a(_udivdi3.o)
 .mdebug.abi32  0x8000011c        0x0 c:/program files (x86)/microchip/xc32/v1.42/bin/bin/../../lib/gcc/pic32mx/4.8.3/../../../../pic32mx/lib/fpu64\libpic32.a(default-bootstrap-exception-handler.o)
 .mdebug.abi32  0x8000011c        0x0 c:/program files (x86)/microchip/xc32/v1.42/bin/bin/../../lib/gcc/pic32mx/4.8.3/../../../../pic32mx/lib/fpu64\libpic32.a(default-on-reset.o)
 .mdebug.abi32  0x8000011c        0x0 c:/program files (x86)/microchip/xc32/v1.42/bin/bin/../../lib/gcc/pic32mx/4.8.3/../../../../pic32mx/lib/fpu64\libpic32.a(default-on-bootstrap.o)
 .mdebug.abi32  0x8000011c        0x0 c:/program files (x86)/microchip/xc32/v1.42/bin/bin/../../lib/gcc/pic32mx/4.8.3/../../../../pic32mx/lib/fpu64\libpic32.a(defaultinterrupt.o)
 .mdebug.abi32  0x8000011c        0x0 c:/program files (x86)/microchip/xc32/v1.42/bin/bin/../../lib/gcc/pic32mx/4.8.3/../../../../pic32mx/lib/fpu64\libpic32.a(default-cache-err-exception-handler.o)
 .mdebug.abi32  0x8000011c        0x0 c:/program files (x86)/microchip/xc32/v1.42/bin/bin/../../lib/gcc/pic32mx/4.8.3/../../../../pic32mx/lib/fpu64\libpic32.a(default-simple-tlb-refill-exception-handler.o)
 .mdebug.abi32  0x8000011c        0x0 c:/program files (x86)/microchip/xc32/v1.42/bin/bin/../../lib/gcc/pic32mx/4.8.3/../../../../pic32mx/lib/fpu64\libc.a(atoi.o)
 .mdebug.abi32  0x8000011c        0x0 c:/program files (x86)/microchip/xc32/v1.42/bin/bin/../../lib/gcc/pic32mx/4.8.3/../../../../pic32mx/lib/fpu64\libc.a(calloc.o)
 .mdebug.abi32  0x8000011c        0x0 c:/program files (x86)/microchip/xc32/v1.42/bin/bin/../../lib/gcc/pic32mx/4.8.3/../../../../pic32mx/lib/fpu64\libc.a(ctype.o)
 .mdebug.abi32  0x8000011c        0x0 c:/program files (x86)/microchip/xc32/v1.42/bin/bin/../../lib/gcc/pic32mx/4.8.3/../../../../pic32mx/lib/fpu64\libc.a(ctypef.o)
 .mdebug.abi32  0x8000011c        0x0 c:/program files (x86)/microchip/xc32/v1.42/bin/bin/../../lib/gcc/pic32mx/4.8.3/../../../../pic32mx/lib/fpu64\libc.a(malloc.o)
 .mdebug.abi32  0x8000011c        0x0 c:/program files (x86)/microchip/xc32/v1.42/bin/bin/../../lib/gcc/pic32mx/4.8.3/../../../../pic32mx/lib/fpu64\libc.a(rand.o)
 .mdebug.abi32  0x8000011c        0x0 c:/program files (x86)/microchip/xc32/v1.42/bin/bin/../../lib/gcc/pic32mx/4.8.3/../../../../pic32mx/lib/fpu64\libc.a(strncpy.o)
 .mdebug.abi32  0x8000011c        0x0 c:/program files (x86)/microchip/xc32/v1.42/bin/bin/../../lib/gcc/pic32mx/4.8.3/../../../../pic32mx/lib/fpu64\libc.a(strtol.o)
 .mdebug.abi32  0x8000011c        0x0 c:/program files (x86)/microchip/xc32/v1.42/bin/bin/../../lib/gcc/pic32mx/4.8.3/../../../../pic32mx/lib/fpu64\libc.a(snprintf_cdnopsuxX.eo)
 .mdebug.abi32  0x8000011c        0x0 c:/program files (x86)/microchip/xc32/v1.42/bin/bin/../../lib/gcc/pic32mx/4.8.3/../../../../pic32mx/lib/fpu64\libc.a(sprintf_cdnopuxX.eo)
 .mdebug.abi32  0x8000011c        0x0 c:/program files (x86)/microchip/xc32/v1.42/bin/bin/../../lib/gcc/pic32mx/4.8.3/../../../../pic32mx/lib/fpu64\libc.a(vsnprintf_cdnopsuxX.eo)
 .mdebug.abi32  0x8000011c        0x0 c:/program files (x86)/microchip/xc32/v1.42/bin/bin/../../lib/gcc/pic32mx/4.8.3/../../../../pic32mx/lib/fpu64\libc.a(errno.o)
 .mdebug.abi32  0x8000011c        0x0 c:/program files (x86)/microchip/xc32/v1.42/bin/bin/../../lib/gcc/pic32mx/4.8.3/../../../../pic32mx/lib/fpu64\libc.a(doprnt_cdnopsuxX.eo)
 .mdebug.abi32  0x8000011c        0x0 c:/program files (x86)/microchip/xc32/v1.42/bin/bin/../../lib/gcc/pic32mx/4.8.3/../../../../pic32mx/lib/fpu64\libc.a(_fputc_simple.o)
 .mdebug.abi32  0x8000011c        0x0 c:/program files (x86)/microchip/xc32/v1.42/bin/bin/../../lib/gcc/pic32mx/4.8.3/../../../../pic32mx/lib/fpu64\libc.a(_iob.o)
 .mdebug.abi32  0x8000011c        0x0 c:/program files (x86)/microchip/xc32/v1.42/bin/bin/../../lib/gcc/pic32mx/4.8.3/../../../../pic32mx/lib/fpu64\libc.a(_flsbuf_simple.o)
 .mdebug.abi32  0x8000011c        0x0 c:/program files (x86)/microchip/xc32/v1.42/bin/bin/../../lib/gcc/pic32mx/4.8.3/../../../../pic32mx/lib/fpu64\libpic32.a(sbrk.o)
 .mdebug.abi32  0x8000011c        0x0 c:/program files (x86)/microchip/xc32/v1.42/bin/bin/../../lib/gcc/pic32mx/4.8.3/../../../../pic32mx/lib/fpu64\libpic32.a(write.o)
 .mdebug.abi32  0x8000011c        0x0 c:/program files (x86)/microchip/xc32/v1.42/bin/bin/../../lib/gcc/pic32mx/4.8.3/../../../../pic32mx/lib/fpu64\libpic32.a(_mon_putc.o)
 .mdebug.abi32  0x8000011c        0x0 c:/program files (x86)/microchip/xc32/v1.42/bin/bin/../../lib/gcc/pic32mx/4.8.3/../../../../pic32mx/lib/fpu64\libpic32.a(xc32_uart.o)
 .mdebug.abi32  0x8000011c        0x0 c:/program files (x86)/microchip/xc32/v1.42/bin/bin/../../lib/gcc/pic32mx/4.8.3/fpu64\libgcc.a(_umoddi3.o)

.mdebug.abiN32
 *(.mdebug.abiN32)

.mdebug.abi64
 *(.mdebug.abi64)

.mdebug.abiO64
 *(.mdebug.abiO64)

.mdebug.eabi32
 *(.mdebug.eabi32)

.mdebug.eabi64
 *(.mdebug.eabi64)

.gcc_compiled_long32
 *(.gcc_compiled_long32)

.gcc_compiled_long64
 *(.gcc_compiled_long64)

.stab
 *(.stab)

.stabstr
 *(.stabstr)

.stab.excl
 *(.stab.excl)

.stab.exclstr
 *(.stab.exclstr)

.stab.index
 *(.stab.index)

.stab.indexstr
 *(.stab.indexstr)

.comment        0x00000000      0x16d
 *(.comment)
 .comment       0x00000000       0x3c build/udp_pic32mz_ef_sk/production/_ext/938613576/bsp.o
                                 0x3d (size before relaxing)
 .comment       0x00000000       0x3d build/udp_pic32mz_ef_sk/production/_ext/1991045727/sys_clk_pic32mz.o
 .comment       0x00000000       0x3d build/udp_pic32mz_ef_sk/production/_ext/2092611130/sys_devcon.o
 .comment       0x00000000       0x3d build/udp_pic32mz_ef_sk/production/_ext/2092611130/sys_devcon_pic32mz.o
 .comment       0x00000000       0x3d build/udp_pic32mz_ef_sk/production/_ext/1633430821/sys_memory_smc_static.o
 .comment       0x00000000       0x3d build/udp_pic32mz_ef_sk/production/_ext/641914703/sys_ports_static.o
 .comment       0x00000000       0x3d build/udp_pic32mz_ef_sk/production/_ext/1532728844/sys_reset.o
 .comment       0x00000000       0x3d build/udp_pic32mz_ef_sk/production/_ext/2145045400/system_init.o
 .comment       0x00000000       0x3d build/udp_pic32mz_ef_sk/production/_ext/2145045400/system_interrupt.o
 .comment       0x00000000       0x3d build/udp_pic32mz_ef_sk/production/_ext/2145045400/system_exceptions.o
 .comment       0x00000000       0x3d build/udp_pic32mz_ef_sk/production/_ext/2145045400/system_tasks.o
 .comment       0x00000000       0x3d build/udp_pic32mz_ef_sk/production/_ext/1360937237/main.o
 .comment       0x00000000       0x3d build/udp_pic32mz_ef_sk/production/_ext/1360937237/app.o
 .comment       0x00000000       0x3d build/udp_pic32mz_ef_sk/production/_ext/615392287/datastream.o
 .comment       0x00000000       0x3d build/udp_pic32mz_ef_sk/production/_ext/615392287/datastream_udp.o
 .comment       0x00000000       0x3d build/udp_pic32mz_ef_sk/production/_ext/686445382/bootloader.o
 .comment       0x00000000       0x3d build/udp_pic32mz_ef_sk/production/_ext/686445382/nvm.o
 .comment       0x00000000       0x3d build/udp_pic32mz_ef_sk/production/_ext/1697634946/drv_ethmac.o
 .comment       0x00000000       0x3d build/udp_pic32mz_ef_sk/production/_ext/1697634946/drv_ethmac_lib.o
 .comment       0x00000000       0x3d build/udp_pic32mz_ef_sk/production/_ext/521481140/drv_ethphy.o
 .comment       0x00000000       0x3d build/udp_pic32mz_ef_sk/production/_ext/521481140/drv_extphy_smsc8740.o
 .comment       0x00000000       0x3d build/udp_pic32mz_ef_sk/production/_ext/941160041/drv_tmr.o
 .comment       0x00000000       0x3d build/udp_pic32mz_ef_sk/production/_ext/1042686532/sys_int_pic32.o
 .comment       0x00000000       0x3d build/udp_pic32mz_ef_sk/production/_ext/470001640/sys_random.o
 .comment       0x00000000       0x3d build/udp_pic32mz_ef_sk/production/_ext/2110151058/sys_tmr.o
 .comment       0x00000000       0x3d build/udp_pic32mz_ef_sk/production/_ext/1886247299/helpers.o
 .comment       0x00000000       0x3d build/udp_pic32mz_ef_sk/production/_ext/1164207549/ipv4.o
 .comment       0x00000000       0x3d build/udp_pic32mz_ef_sk/production/_ext/1164207549/udp.o
 .comment       0x00000000       0x3d build/udp_pic32mz_ef_sk/production/_ext/1164207549/tcpip_heap_alloc.o
 .comment       0x00000000       0x3d build/udp_pic32mz_ef_sk/production/_ext/1164207549/tcpip_heap_internal.o
 .comment       0x00000000       0x3d build/udp_pic32mz_ef_sk/production/_ext/1164207549/arp.o
 .comment       0x00000000       0x3d build/udp_pic32mz_ef_sk/production/_ext/1164207549/dhcp.o
 .comment       0x00000000       0x3d build/udp_pic32mz_ef_sk/production/_ext/1164207549/dns.o
 .comment       0x00000000       0x3d build/udp_pic32mz_ef_sk/production/_ext/1164207549/hash_fnv.o
 .comment       0x00000000       0x3d build/udp_pic32mz_ef_sk/production/_ext/1164207549/oahash.o
 .comment       0x00000000       0x3d build/udp_pic32mz_ef_sk/production/_ext/1164207549/tcpip_helpers.o
 .comment       0x00000000       0x3d build/udp_pic32mz_ef_sk/production/_ext/1164207549/tcpip_manager.o
 .comment       0x00000000       0x3d build/udp_pic32mz_ef_sk/production/_ext/1164207549/tcpip_notify.o
 .comment       0x00000000       0x3d build/udp_pic32mz_ef_sk/production/_ext/1164207549/tcpip_packet.o
 .comment       0x00000000       0x3d c:/program files (x86)/microchip/xc32/v1.42/bin/bin/../../lib/gcc/pic32mx/4.8.3/fpu64\libgcc.a(_udivdi3.o)
 .comment       0x0000003c       0x18 c:/program files (x86)/microchip/xc32/v1.42/bin/bin/../../lib/gcc/pic32mx/4.8.3/../../../../pic32mx/lib/fpu64\libpic32.a(memcmp.o)
                                 0x19 (size before relaxing)
 .comment       0x00000054       0x18 c:/program files (x86)/microchip/xc32/v1.42/bin/bin/../../lib/gcc/pic32mx/4.8.3/../../../../pic32mx/lib/fpu64\libpic32.a(memset.o)
                                 0x19 (size before relaxing)
 .comment       0x0000006c       0x19 c:/program files (x86)/microchip/xc32/v1.42/bin/bin/../../lib/gcc/pic32mx/4.8.3/../../../../pic32mx/lib/fpu64\libpic32.a(strcmp.o)
                                 0x1a (size before relaxing)
 .comment       0x00000000       0x3d c:/program files (x86)/microchip/xc32/v1.42/bin/bin/../../lib/gcc/pic32mx/4.8.3/../../../../pic32mx/lib/fpu64\libpic32.a(default-bootstrap-exception-handler.o)
 .comment       0x00000000       0x3d c:/program files (x86)/microchip/xc32/v1.42/bin/bin/../../lib/gcc/pic32mx/4.8.3/../../../../pic32mx/lib/fpu64\libpic32.a(default-on-reset.o)
 .comment       0x00000000       0x3d c:/program files (x86)/microchip/xc32/v1.42/bin/bin/../../lib/gcc/pic32mx/4.8.3/../../../../pic32mx/lib/fpu64\libpic32.a(default-on-bootstrap.o)
 .comment       0x00000000       0x3d c:/program files (x86)/microchip/xc32/v1.42/bin/bin/../../lib/gcc/pic32mx/4.8.3/../../../../pic32mx/lib/fpu64\libpic32.a(defaultinterrupt.o)
 .comment       0x00000000       0x3d c:/program files (x86)/microchip/xc32/v1.42/bin/bin/../../lib/gcc/pic32mx/4.8.3/../../../../pic32mx/lib/fpu64\libpic32.a(default-cache-err-exception-handler.o)
 .comment       0x00000000       0x3d c:/program files (x86)/microchip/xc32/v1.42/bin/bin/../../lib/gcc/pic32mx/4.8.3/../../../../pic32mx/lib/fpu64\libpic32.a(default-simple-tlb-refill-exception-handler.o)
 .comment       0x00000000       0x3d c:/program files (x86)/microchip/xc32/v1.42/bin/bin/../../lib/gcc/pic32mx/4.8.3/../../../../pic32mx/lib/fpu64\libc.a(atoi.o)
 .comment       0x00000000       0x3d c:/program files (x86)/microchip/xc32/v1.42/bin/bin/../../lib/gcc/pic32mx/4.8.3/../../../../pic32mx/lib/fpu64\libc.a(calloc.o)
 .comment       0x00000085       0x4e c:/program files (x86)/microchip/xc32/v1.42/bin/bin/../../lib/gcc/pic32mx/4.8.3/../../../../pic32mx/lib/fpu64\libc.a(ctype.o)
                                 0x8b (size before relaxing)
 .comment       0x000000d3       0x4f c:/program files (x86)/microchip/xc32/v1.42/bin/bin/../../lib/gcc/pic32mx/4.8.3/../../../../pic32mx/lib/fpu64\libc.a(ctypef.o)
                                 0x8c (size before relaxing)
 .comment       0x00000000       0x3d c:/program files (x86)/microchip/xc32/v1.42/bin/bin/../../lib/gcc/pic32mx/4.8.3/../../../../pic32mx/lib/fpu64\libc.a(malloc.o)
 .comment       0x00000000       0x3d c:/program files (x86)/microchip/xc32/v1.42/bin/bin/../../lib/gcc/pic32mx/4.8.3/../../../../pic32mx/lib/fpu64\libc.a(rand.o)
 .comment       0x00000000       0x3d c:/program files (x86)/microchip/xc32/v1.42/bin/bin/../../lib/gcc/pic32mx/4.8.3/../../../../pic32mx/lib/fpu64\libc.a(strncpy.o)
 .comment       0x00000000       0x3d c:/program files (x86)/microchip/xc32/v1.42/bin/bin/../../lib/gcc/pic32mx/4.8.3/../../../../pic32mx/lib/fpu64\libc.a(strtol.o)
 .comment       0x00000000       0x3d c:/program files (x86)/microchip/xc32/v1.42/bin/bin/../../lib/gcc/pic32mx/4.8.3/../../../../pic32mx/lib/fpu64\libc.a(snprintf_cdnopsuxX.eo)
 .comment       0x00000000       0x3d c:/program files (x86)/microchip/xc32/v1.42/bin/bin/../../lib/gcc/pic32mx/4.8.3/../../../../pic32mx/lib/fpu64\libc.a(sprintf_cdnopuxX.eo)
 .comment       0x00000000       0x3d c:/program files (x86)/microchip/xc32/v1.42/bin/bin/../../lib/gcc/pic32mx/4.8.3/../../../../pic32mx/lib/fpu64\libc.a(vsnprintf_cdnopsuxX.eo)
 .comment       0x00000000       0x3d c:/program files (x86)/microchip/xc32/v1.42/bin/bin/../../lib/gcc/pic32mx/4.8.3/../../../../pic32mx/lib/fpu64\libc.a(errno.o)
 .comment       0x00000000       0x3d c:/program files (x86)/microchip/xc32/v1.42/bin/bin/../../lib/gcc/pic32mx/4.8.3/../../../../pic32mx/lib/fpu64\libc.a(doprnt_cdnopsuxX.eo)
 .comment       0x00000000       0x3d c:/program files (x86)/microchip/xc32/v1.42/bin/bin/../../lib/gcc/pic32mx/4.8.3/../../../../pic32mx/lib/fpu64\libc.a(_fputc_simple.o)
 .comment       0x00000000       0x3d c:/program files (x86)/microchip/xc32/v1.42/bin/bin/../../lib/gcc/pic32mx/4.8.3/../../../../pic32mx/lib/fpu64\libc.a(_iob.o)
 .comment       0x00000000       0x3d c:/program files (x86)/microchip/xc32/v1.42/bin/bin/../../lib/gcc/pic32mx/4.8.3/../../../../pic32mx/lib/fpu64\libc.a(_flsbuf_simple.o)
 .comment       0x00000122       0x4b c:/program files (x86)/microchip/xc32/v1.42/bin/bin/../../lib/gcc/pic32mx/4.8.3/../../../../pic32mx/lib/fpu64\libpic32.a(sbrk.o)
                                 0x88 (size before relaxing)
 .comment       0x00000000       0x3d c:/program files (x86)/microchip/xc32/v1.42/bin/bin/../../lib/gcc/pic32mx/4.8.3/../../../../pic32mx/lib/fpu64\libpic32.a(write.o)
 .comment       0x00000000       0x3d c:/program files (x86)/microchip/xc32/v1.42/bin/bin/../../lib/gcc/pic32mx/4.8.3/../../../../pic32mx/lib/fpu64\libpic32.a(_mon_putc.o)
 .comment       0x00000000       0x3d c:/program files (x86)/microchip/xc32/v1.42/bin/bin/../../lib/gcc/pic32mx/4.8.3/../../../../pic32mx/lib/fpu64\libpic32.a(xc32_uart.o)
 .comment       0x00000000       0x3d c:/program files (x86)/microchip/xc32/v1.42/bin/bin/../../lib/gcc/pic32mx/4.8.3/fpu64\libgcc.a(_umoddi3.o)

.debug
 *(.debug)

.line
 *(.line)

.debug_srcinfo
 *(.debug_srcinfo)

.debug_sfnames
 *(.debug_sfnames)

.debug_aranges  0x00000000     0x1cd8
 *(.debug_aranges)
 .debug_aranges
                0x00000000       0x68 build/udp_pic32mz_ef_sk/production/_ext/938613576/bsp.o
 .debug_aranges
                0x00000068       0x50 build/udp_pic32mz_ef_sk/production/_ext/1991045727/sys_clk_pic32mz.o
 .debug_aranges
                0x000000b8       0x78 build/udp_pic32mz_ef_sk/production/_ext/2092611130/sys_devcon.o
 .debug_aranges
                0x00000130       0xc8 build/udp_pic32mz_ef_sk/production/_ext/2092611130/sys_devcon_pic32mz.o
 .debug_aranges
                0x000001f8      0x148 build/udp_pic32mz_ef_sk/production/_ext/641914703/sys_ports_static.o
 .debug_aranges
                0x00000340       0x38 build/udp_pic32mz_ef_sk/production/_ext/1532728844/sys_reset.o
 .debug_aranges
                0x00000378       0x28 build/udp_pic32mz_ef_sk/production/_ext/2145045400/system_init.o
 .debug_aranges
                0x000003a0       0x30 build/udp_pic32mz_ef_sk/production/_ext/2145045400/system_interrupt.o
 .debug_aranges
                0x000003d0       0x20 build/udp_pic32mz_ef_sk/production/_ext/2145045400/system_exceptions.o
 .debug_aranges
                0x000003f0       0x20 build/udp_pic32mz_ef_sk/production/_ext/2145045400/system_tasks.o
 .debug_aranges
                0x00000410       0x20 build/udp_pic32mz_ef_sk/production/_ext/1360937237/main.o
 .debug_aranges
                0x00000430       0x30 build/udp_pic32mz_ef_sk/production/_ext/1360937237/app.o
 .debug_aranges
                0x00000460       0x58 build/udp_pic32mz_ef_sk/production/_ext/615392287/datastream.o
 .debug_aranges
                0x000004b8       0x38 build/udp_pic32mz_ef_sk/production/_ext/615392287/datastream_udp.o
 .debug_aranges
                0x000004f0       0x60 build/udp_pic32mz_ef_sk/production/_ext/686445382/bootloader.o
 .debug_aranges
                0x00000550       0x58 build/udp_pic32mz_ef_sk/production/_ext/686445382/nvm.o
 .debug_aranges
                0x000005a8      0x180 build/udp_pic32mz_ef_sk/production/_ext/1697634946/drv_ethmac.o
 .debug_aranges
                0x00000728       0xe8 build/udp_pic32mz_ef_sk/production/_ext/1697634946/drv_ethmac_lib.o
 .debug_aranges
                0x00000810      0x278 build/udp_pic32mz_ef_sk/production/_ext/521481140/drv_ethphy.o
 .debug_aranges
                0x00000a88       0x30 build/udp_pic32mz_ef_sk/production/_ext/521481140/drv_extphy_smsc8740.o
 .debug_aranges
                0x00000ab8      0x110 build/udp_pic32mz_ef_sk/production/_ext/941160041/drv_tmr.o
 .debug_aranges
                0x00000bc8       0x48 build/udp_pic32mz_ef_sk/production/_ext/1042686532/sys_int_pic32.o
 .debug_aranges
                0x00000c10       0x38 build/udp_pic32mz_ef_sk/production/_ext/470001640/sys_random.o
 .debug_aranges
                0x00000c48       0xd0 build/udp_pic32mz_ef_sk/production/_ext/2110151058/sys_tmr.o
 .debug_aranges
                0x00000d18       0x40 build/udp_pic32mz_ef_sk/production/_ext/1886247299/helpers.o
 .debug_aranges
                0x00000d58       0xc0 build/udp_pic32mz_ef_sk/production/_ext/1164207549/ipv4.o
 .debug_aranges
                0x00000e18      0x1b8 build/udp_pic32mz_ef_sk/production/_ext/1164207549/udp.o
 .debug_aranges
                0x00000fd0       0x48 build/udp_pic32mz_ef_sk/production/_ext/1164207549/tcpip_heap_alloc.o
 .debug_aranges
                0x00001018       0x60 build/udp_pic32mz_ef_sk/production/_ext/1164207549/tcpip_heap_internal.o
 .debug_aranges
                0x00001078      0x110 build/udp_pic32mz_ef_sk/production/_ext/1164207549/arp.o
 .debug_aranges
                0x00001188       0x50 build/udp_pic32mz_ef_sk/production/_ext/1164207549/dhcp.o
 .debug_aranges
                0x000011d8       0x68 build/udp_pic32mz_ef_sk/production/_ext/1164207549/dns.o
 .debug_aranges
                0x00001240       0x28 build/udp_pic32mz_ef_sk/production/_ext/1164207549/hash_fnv.o
 .debug_aranges
                0x00001268       0x50 build/udp_pic32mz_ef_sk/production/_ext/1164207549/oahash.o
 .debug_aranges
                0x000012b8      0x210 build/udp_pic32mz_ef_sk/production/_ext/1164207549/tcpip_helpers.o
 .debug_aranges
                0x000014c8       0x20 build/udp_pic32mz_ef_sk/production/_ext/1164207549/tcpip_helper_c32.o
 .debug_aranges
                0x000014e8      0x378 build/udp_pic32mz_ef_sk/production/_ext/1164207549/tcpip_manager.o
 .debug_aranges
                0x00001860       0x40 build/udp_pic32mz_ef_sk/production/_ext/1164207549/tcpip_notify.o
 .debug_aranges
                0x000018a0       0x78 build/udp_pic32mz_ef_sk/production/_ext/1164207549/tcpip_packet.o
 .debug_aranges
                0x00001918       0x20 c:/program files (x86)/microchip/xc32/v1.42/bin/bin/../../lib/gcc/pic32mx/4.8.3/fpu64\libgcc.a(_udivdi3.o)
 .debug_aranges
                0x00001938       0x20 c:/program files (x86)/microchip/xc32/v1.42/bin/bin/../../lib/gcc/pic32mx/4.8.3/../../../../pic32mx/lib/fpu64\libpic32.a(default-bootstrap-exception-handler.o)
 .debug_aranges
                0x00001958       0x20 c:/program files (x86)/microchip/xc32/v1.42/bin/bin/../../lib/gcc/pic32mx/4.8.3/../../../../pic32mx/lib/fpu64\libpic32.a(default-on-reset.o)
 .debug_aranges
                0x00001978       0x20 c:/program files (x86)/microchip/xc32/v1.42/bin/bin/../../lib/gcc/pic32mx/4.8.3/../../../../pic32mx/lib/fpu64\libpic32.a(default-on-bootstrap.o)
 .debug_aranges
                0x00001998       0x20 c:/program files (x86)/microchip/xc32/v1.42/bin/bin/../../lib/gcc/pic32mx/4.8.3/../../../../pic32mx/lib/fpu64\libpic32.a(defaultinterrupt.o)
 .debug_aranges
                0x000019b8       0x20 c:/program files (x86)/microchip/xc32/v1.42/bin/bin/../../lib/gcc/pic32mx/4.8.3/../../../../pic32mx/lib/fpu64\libpic32.a(default-cache-err-exception-handler.o)
 .debug_aranges
                0x000019d8       0x20 c:/program files (x86)/microchip/xc32/v1.42/bin/bin/../../lib/gcc/pic32mx/4.8.3/../../../../pic32mx/lib/fpu64\libpic32.a(default-simple-tlb-refill-exception-handler.o)
 .debug_aranges
                0x000019f8       0x20 c:/program files (x86)/microchip/xc32/v1.42/bin/bin/../../lib/gcc/pic32mx/4.8.3/../../../../pic32mx/lib/fpu64\libc.a(atoi.o)
 .debug_aranges
                0x00001a18       0x20 c:/program files (x86)/microchip/xc32/v1.42/bin/bin/../../lib/gcc/pic32mx/4.8.3/../../../../pic32mx/lib/fpu64\libc.a(calloc.o)
 .debug_aranges
                0x00001a38       0xa0 c:/program files (x86)/microchip/xc32/v1.42/bin/bin/../../lib/gcc/pic32mx/4.8.3/../../../../pic32mx/lib/fpu64\libc.a(ctypef.o)
 .debug_aranges
                0x00001ad8       0x30 c:/program files (x86)/microchip/xc32/v1.42/bin/bin/../../lib/gcc/pic32mx/4.8.3/../../../../pic32mx/lib/fpu64\libc.a(malloc.o)
 .debug_aranges
                0x00001b08       0x28 c:/program files (x86)/microchip/xc32/v1.42/bin/bin/../../lib/gcc/pic32mx/4.8.3/../../../../pic32mx/lib/fpu64\libc.a(rand.o)
 .debug_aranges
                0x00001b30       0x20 c:/program files (x86)/microchip/xc32/v1.42/bin/bin/../../lib/gcc/pic32mx/4.8.3/../../../../pic32mx/lib/fpu64\libc.a(strncpy.o)
 .debug_aranges
                0x00001b50       0x28 c:/program files (x86)/microchip/xc32/v1.42/bin/bin/../../lib/gcc/pic32mx/4.8.3/../../../../pic32mx/lib/fpu64\libc.a(strtol.o)
 .debug_aranges
                0x00001b78       0x20 c:/program files (x86)/microchip/xc32/v1.42/bin/bin/../../lib/gcc/pic32mx/4.8.3/../../../../pic32mx/lib/fpu64\libc.a(snprintf_cdnopsuxX.eo)
 .debug_aranges
                0x00001b98       0x20 c:/program files (x86)/microchip/xc32/v1.42/bin/bin/../../lib/gcc/pic32mx/4.8.3/../../../../pic32mx/lib/fpu64\libc.a(sprintf_cdnopuxX.eo)
 .debug_aranges
                0x00001bb8       0x20 c:/program files (x86)/microchip/xc32/v1.42/bin/bin/../../lib/gcc/pic32mx/4.8.3/../../../../pic32mx/lib/fpu64\libc.a(vsnprintf_cdnopsuxX.eo)
 .debug_aranges
                0x00001bd8       0x20 c:/program files (x86)/microchip/xc32/v1.42/bin/bin/../../lib/gcc/pic32mx/4.8.3/../../../../pic32mx/lib/fpu64\libc.a(doprnt_cdnopsuxX.eo)
 .debug_aranges
                0x00001bf8       0x20 c:/program files (x86)/microchip/xc32/v1.42/bin/bin/../../lib/gcc/pic32mx/4.8.3/../../../../pic32mx/lib/fpu64\libc.a(_fputc_simple.o)
 .debug_aranges
                0x00001c18       0x20 c:/program files (x86)/microchip/xc32/v1.42/bin/bin/../../lib/gcc/pic32mx/4.8.3/../../../../pic32mx/lib/fpu64\libc.a(_flsbuf_simple.o)
 .debug_aranges
                0x00001c38       0x40 c:/program files (x86)/microchip/xc32/v1.42/bin/bin/../../lib/gcc/pic32mx/4.8.3/../../../../pic32mx/lib/fpu64\libpic32.a(sbrk.o)
 .debug_aranges
                0x00001c78       0x20 c:/program files (x86)/microchip/xc32/v1.42/bin/bin/../../lib/gcc/pic32mx/4.8.3/../../../../pic32mx/lib/fpu64\libpic32.a(write.o)
 .debug_aranges
                0x00001c98       0x20 c:/program files (x86)/microchip/xc32/v1.42/bin/bin/../../lib/gcc/pic32mx/4.8.3/../../../../pic32mx/lib/fpu64\libpic32.a(_mon_putc.o)
 .debug_aranges
                0x00001cb8       0x20 c:/program files (x86)/microchip/xc32/v1.42/bin/bin/../../lib/gcc/pic32mx/4.8.3/fpu64\libgcc.a(_umoddi3.o)

.debug_pubnames
 *(.debug_pubnames)

.debug_info     0x00000000    0x8efd6
 *(.debug_info .gnu.linkonce.wi.*)
 .debug_info    0x00000000     0x134e build/udp_pic32mz_ef_sk/production/_ext/938613576/bsp.o
 .debug_info    0x0000134e     0x235f build/udp_pic32mz_ef_sk/production/_ext/1991045727/sys_clk_pic32mz.o
 .debug_info    0x000036ad     0x1984 build/udp_pic32mz_ef_sk/production/_ext/2092611130/sys_devcon.o
 .debug_info    0x00005031     0x1486 build/udp_pic32mz_ef_sk/production/_ext/2092611130/sys_devcon_pic32mz.o
 .debug_info    0x000064b7     0x6189 build/udp_pic32mz_ef_sk/production/_ext/641914703/sys_ports_static.o
 .debug_info    0x0000c640      0xc4c build/udp_pic32mz_ef_sk/production/_ext/1532728844/sys_reset.o
 .debug_info    0x0000d28c     0x818d build/udp_pic32mz_ef_sk/production/_ext/2145045400/system_init.o
 .debug_info    0x00015419     0x26f7 build/udp_pic32mz_ef_sk/production/_ext/2145045400/system_interrupt.o
 .debug_info    0x00017b10      0xf62 build/udp_pic32mz_ef_sk/production/_ext/2145045400/system_exceptions.o
 .debug_info    0x00018a72      0xfe3 build/udp_pic32mz_ef_sk/production/_ext/2145045400/system_tasks.o
 .debug_info    0x00019a55      0x1a6 build/udp_pic32mz_ef_sk/production/_ext/1360937237/main.o
 .debug_info    0x00019bfb      0xbd8 build/udp_pic32mz_ef_sk/production/_ext/1360937237/app.o
 .debug_info    0x0001a7d3     0x131a build/udp_pic32mz_ef_sk/production/_ext/615392287/datastream.o
 .debug_info    0x0001baed     0x73ac build/udp_pic32mz_ef_sk/production/_ext/615392287/datastream_udp.o
 .debug_info    0x00022e99     0x1e03 build/udp_pic32mz_ef_sk/production/_ext/686445382/bootloader.o
 .debug_info    0x00024c9c     0x1b0d build/udp_pic32mz_ef_sk/production/_ext/686445382/nvm.o
 .debug_info    0x000267a9     0xe551 build/udp_pic32mz_ef_sk/production/_ext/1697634946/drv_ethmac.o
 .debug_info    0x00034cfa     0xbe68 build/udp_pic32mz_ef_sk/production/_ext/1697634946/drv_ethmac_lib.o
 .debug_info    0x00040b62     0x9dba build/udp_pic32mz_ef_sk/production/_ext/521481140/drv_ethphy.o
 .debug_info    0x0004a91c     0x265b build/udp_pic32mz_ef_sk/production/_ext/521481140/drv_extphy_smsc8740.o
 .debug_info    0x0004cf77     0x6511 build/udp_pic32mz_ef_sk/production/_ext/941160041/drv_tmr.o
 .debug_info    0x00053488     0x240e build/udp_pic32mz_ef_sk/production/_ext/1042686532/sys_int_pic32.o
 .debug_info    0x00055896      0x7c0 build/udp_pic32mz_ef_sk/production/_ext/470001640/sys_random.o
 .debug_info    0x00056056     0x2b5f build/udp_pic32mz_ef_sk/production/_ext/2110151058/sys_tmr.o
 .debug_info    0x00058bb5      0x47c build/udp_pic32mz_ef_sk/production/_ext/1886247299/helpers.o
 .debug_info    0x00059031     0x697a build/udp_pic32mz_ef_sk/production/_ext/1164207549/ipv4.o
 .debug_info    0x0005f9ab     0x9112 build/udp_pic32mz_ef_sk/production/_ext/1164207549/udp.o
 .debug_info    0x00068abd     0x1949 build/udp_pic32mz_ef_sk/production/_ext/1164207549/tcpip_heap_alloc.o
 .debug_info    0x0006a406     0x26b4 build/udp_pic32mz_ef_sk/production/_ext/1164207549/tcpip_heap_internal.o
 .debug_info    0x0006caba     0x704e build/udp_pic32mz_ef_sk/production/_ext/1164207549/arp.o
 .debug_info    0x00073b08     0x133a build/udp_pic32mz_ef_sk/production/_ext/1164207549/dhcp.o
 .debug_info    0x00074e42     0x179d build/udp_pic32mz_ef_sk/production/_ext/1164207549/dns.o
 .debug_info    0x000765df      0x271 build/udp_pic32mz_ef_sk/production/_ext/1164207549/hash_fnv.o
 .debug_info    0x00076850      0x88b build/udp_pic32mz_ef_sk/production/_ext/1164207549/oahash.o
 .debug_info    0x000770db     0x5a48 build/udp_pic32mz_ef_sk/production/_ext/1164207549/tcpip_helpers.o
 .debug_info    0x0007cb23       0xa0 build/udp_pic32mz_ef_sk/production/_ext/1164207549/tcpip_helper_c32.o
 .debug_info    0x0007cbc3     0xaeaf build/udp_pic32mz_ef_sk/production/_ext/1164207549/tcpip_manager.o
 .debug_info    0x00087a72     0x1792 build/udp_pic32mz_ef_sk/production/_ext/1164207549/tcpip_notify.o
 .debug_info    0x00089204     0x3a3f build/udp_pic32mz_ef_sk/production/_ext/1164207549/tcpip_packet.o
 .debug_info    0x0008cc43      0x779 c:/program files (x86)/microchip/xc32/v1.42/bin/bin/../../lib/gcc/pic32mx/4.8.3/fpu64\libgcc.a(_udivdi3.o)
 .debug_info    0x0008d3bc       0xf5 c:/program files (x86)/microchip/xc32/v1.42/bin/bin/../../lib/gcc/pic32mx/4.8.3/../../../../pic32mx/lib/fpu64\libpic32.a(default-bootstrap-exception-handler.o)
 .debug_info    0x0008d4b1       0xcf c:/program files (x86)/microchip/xc32/v1.42/bin/bin/../../lib/gcc/pic32mx/4.8.3/../../../../pic32mx/lib/fpu64\libpic32.a(default-on-reset.o)
 .debug_info    0x0008d580       0xd7 c:/program files (x86)/microchip/xc32/v1.42/bin/bin/../../lib/gcc/pic32mx/4.8.3/../../../../pic32mx/lib/fpu64\libpic32.a(default-on-bootstrap.o)
 .debug_info    0x0008d657       0xe9 c:/program files (x86)/microchip/xc32/v1.42/bin/bin/../../lib/gcc/pic32mx/4.8.3/../../../../pic32mx/lib/fpu64\libpic32.a(defaultinterrupt.o)
 .debug_info    0x0008d740       0xf5 c:/program files (x86)/microchip/xc32/v1.42/bin/bin/../../lib/gcc/pic32mx/4.8.3/../../../../pic32mx/lib/fpu64\libpic32.a(default-cache-err-exception-handler.o)
 .debug_info    0x0008d835      0x105 c:/program files (x86)/microchip/xc32/v1.42/bin/bin/../../lib/gcc/pic32mx/4.8.3/../../../../pic32mx/lib/fpu64\libpic32.a(default-simple-tlb-refill-exception-handler.o)
 .debug_info    0x0008d93a       0xc4 c:/program files (x86)/microchip/xc32/v1.42/bin/bin/../../lib/gcc/pic32mx/4.8.3/../../../../pic32mx/lib/fpu64\libc.a(atoi.o)
 .debug_info    0x0008d9fe       0xc8 c:/program files (x86)/microchip/xc32/v1.42/bin/bin/../../lib/gcc/pic32mx/4.8.3/../../../../pic32mx/lib/fpu64\libc.a(calloc.o)
 .debug_info    0x0008dac6      0x23c c:/program files (x86)/microchip/xc32/v1.42/bin/bin/../../lib/gcc/pic32mx/4.8.3/../../../../pic32mx/lib/fpu64\libc.a(ctypef.o)
 .debug_info    0x0008dd02       0xf9 c:/program files (x86)/microchip/xc32/v1.42/bin/bin/../../lib/gcc/pic32mx/4.8.3/../../../../pic32mx/lib/fpu64\libc.a(malloc.o)
 .debug_info    0x0008ddfb       0xdf c:/program files (x86)/microchip/xc32/v1.42/bin/bin/../../lib/gcc/pic32mx/4.8.3/../../../../pic32mx/lib/fpu64\libc.a(rand.o)
 .debug_info    0x0008deda       0xca c:/program files (x86)/microchip/xc32/v1.42/bin/bin/../../lib/gcc/pic32mx/4.8.3/../../../../pic32mx/lib/fpu64\libc.a(strncpy.o)
 .debug_info    0x0008dfa4       0xdf c:/program files (x86)/microchip/xc32/v1.42/bin/bin/../../lib/gcc/pic32mx/4.8.3/../../../../pic32mx/lib/fpu64\libc.a(strtol.o)
 .debug_info    0x0008e083       0xd7 c:/program files (x86)/microchip/xc32/v1.42/bin/bin/../../lib/gcc/pic32mx/4.8.3/../../../../pic32mx/lib/fpu64\libc.a(snprintf_cdnopsuxX.eo)
 .debug_info    0x0008e15a       0xd4 c:/program files (x86)/microchip/xc32/v1.42/bin/bin/../../lib/gcc/pic32mx/4.8.3/../../../../pic32mx/lib/fpu64\libc.a(sprintf_cdnopuxX.eo)
 .debug_info    0x0008e22e       0xd9 c:/program files (x86)/microchip/xc32/v1.42/bin/bin/../../lib/gcc/pic32mx/4.8.3/../../../../pic32mx/lib/fpu64\libc.a(vsnprintf_cdnopsuxX.eo)
 .debug_info    0x0008e307       0xd6 c:/program files (x86)/microchip/xc32/v1.42/bin/bin/../../lib/gcc/pic32mx/4.8.3/../../../../pic32mx/lib/fpu64\libc.a(doprnt_cdnopsuxX.eo)
 .debug_info    0x0008e3dd       0xc6 c:/program files (x86)/microchip/xc32/v1.42/bin/bin/../../lib/gcc/pic32mx/4.8.3/../../../../pic32mx/lib/fpu64\libc.a(_fputc_simple.o)
 .debug_info    0x0008e4a3       0xc9 c:/program files (x86)/microchip/xc32/v1.42/bin/bin/../../lib/gcc/pic32mx/4.8.3/../../../../pic32mx/lib/fpu64\libc.a(_flsbuf_simple.o)
 .debug_info    0x0008e56c      0x12c c:/program files (x86)/microchip/xc32/v1.42/bin/bin/../../lib/gcc/pic32mx/4.8.3/../../../../pic32mx/lib/fpu64\libpic32.a(sbrk.o)
 .debug_info    0x0008e698       0xc0 c:/program files (x86)/microchip/xc32/v1.42/bin/bin/../../lib/gcc/pic32mx/4.8.3/../../../../pic32mx/lib/fpu64\libpic32.a(write.o)
 .debug_info    0x0008e758       0xc8 c:/program files (x86)/microchip/xc32/v1.42/bin/bin/../../lib/gcc/pic32mx/4.8.3/../../../../pic32mx/lib/fpu64\libpic32.a(_mon_putc.o)
 .debug_info    0x0008e820      0x7b6 c:/program files (x86)/microchip/xc32/v1.42/bin/bin/../../lib/gcc/pic32mx/4.8.3/fpu64\libgcc.a(_umoddi3.o)

.debug_abbrev   0x00000000     0x7dfa
 *(.debug_abbrev)
 .debug_abbrev  0x00000000      0x25b build/udp_pic32mz_ef_sk/production/_ext/938613576/bsp.o
 .debug_abbrev  0x0000025b      0x2ba build/udp_pic32mz_ef_sk/production/_ext/1991045727/sys_clk_pic32mz.o
 .debug_abbrev  0x00000515      0x2cf build/udp_pic32mz_ef_sk/production/_ext/2092611130/sys_devcon.o
 .debug_abbrev  0x000007e4      0x290 build/udp_pic32mz_ef_sk/production/_ext/2092611130/sys_devcon_pic32mz.o
 .debug_abbrev  0x00000a74      0x2dd build/udp_pic32mz_ef_sk/production/_ext/641914703/sys_ports_static.o
 .debug_abbrev  0x00000d51      0x1d8 build/udp_pic32mz_ef_sk/production/_ext/1532728844/sys_reset.o
 .debug_abbrev  0x00000f29      0x3a8 build/udp_pic32mz_ef_sk/production/_ext/2145045400/system_init.o
 .debug_abbrev  0x000012d1      0x243 build/udp_pic32mz_ef_sk/production/_ext/2145045400/system_interrupt.o
 .debug_abbrev  0x00001514      0x12a build/udp_pic32mz_ef_sk/production/_ext/2145045400/system_exceptions.o
 .debug_abbrev  0x0000163e      0x18f build/udp_pic32mz_ef_sk/production/_ext/2145045400/system_tasks.o
 .debug_abbrev  0x000017cd       0x93 build/udp_pic32mz_ef_sk/production/_ext/1360937237/main.o
 .debug_abbrev  0x00001860      0x19f build/udp_pic32mz_ef_sk/production/_ext/1360937237/app.o
 .debug_abbrev  0x000019ff      0x25c build/udp_pic32mz_ef_sk/production/_ext/615392287/datastream.o
 .debug_abbrev  0x00001c5b      0x374 build/udp_pic32mz_ef_sk/production/_ext/615392287/datastream_udp.o
 .debug_abbrev  0x00001fcf      0x376 build/udp_pic32mz_ef_sk/production/_ext/686445382/bootloader.o
 .debug_abbrev  0x00002345      0x2c7 build/udp_pic32mz_ef_sk/production/_ext/686445382/nvm.o
 .debug_abbrev  0x0000260c      0x60a build/udp_pic32mz_ef_sk/production/_ext/1697634946/drv_ethmac.o
 .debug_abbrev  0x00002c16      0x586 build/udp_pic32mz_ef_sk/production/_ext/1697634946/drv_ethmac_lib.o
 .debug_abbrev  0x0000319c      0x4ec build/udp_pic32mz_ef_sk/production/_ext/521481140/drv_ethphy.o
 .debug_abbrev  0x00003688      0x259 build/udp_pic32mz_ef_sk/production/_ext/521481140/drv_extphy_smsc8740.o
 .debug_abbrev  0x000038e1      0x4c6 build/udp_pic32mz_ef_sk/production/_ext/941160041/drv_tmr.o
 .debug_abbrev  0x00003da7      0x212 build/udp_pic32mz_ef_sk/production/_ext/1042686532/sys_int_pic32.o
 .debug_abbrev  0x00003fb9      0x1f6 build/udp_pic32mz_ef_sk/production/_ext/470001640/sys_random.o
 .debug_abbrev  0x000041af      0x500 build/udp_pic32mz_ef_sk/production/_ext/2110151058/sys_tmr.o
 .debug_abbrev  0x000046af      0x12e build/udp_pic32mz_ef_sk/production/_ext/1886247299/helpers.o
 .debug_abbrev  0x000047dd      0x58c build/udp_pic32mz_ef_sk/production/_ext/1164207549/ipv4.o
 .debug_abbrev  0x00004d69      0x696 build/udp_pic32mz_ef_sk/production/_ext/1164207549/udp.o
 .debug_abbrev  0x000053ff      0x218 build/udp_pic32mz_ef_sk/production/_ext/1164207549/tcpip_heap_alloc.o
 .debug_abbrev  0x00005617      0x3d5 build/udp_pic32mz_ef_sk/production/_ext/1164207549/tcpip_heap_internal.o
 .debug_abbrev  0x000059ec      0x594 build/udp_pic32mz_ef_sk/production/_ext/1164207549/arp.o
 .debug_abbrev  0x00005f80      0x178 build/udp_pic32mz_ef_sk/production/_ext/1164207549/dhcp.o
 .debug_abbrev  0x000060f8      0x1a1 build/udp_pic32mz_ef_sk/production/_ext/1164207549/dns.o
 .debug_abbrev  0x00006299       0xb5 build/udp_pic32mz_ef_sk/production/_ext/1164207549/hash_fnv.o
 .debug_abbrev  0x0000634e      0x277 build/udp_pic32mz_ef_sk/production/_ext/1164207549/oahash.o
 .debug_abbrev  0x000065c5      0x4ee build/udp_pic32mz_ef_sk/production/_ext/1164207549/tcpip_helpers.o
 .debug_abbrev  0x00006ab3       0x14 build/udp_pic32mz_ef_sk/production/_ext/1164207549/tcpip_helper_c32.o
 .debug_abbrev  0x00006ac7      0x670 build/udp_pic32mz_ef_sk/production/_ext/1164207549/tcpip_manager.o
 .debug_abbrev  0x00007137      0x26f build/udp_pic32mz_ef_sk/production/_ext/1164207549/tcpip_notify.o
 .debug_abbrev  0x000073a6      0x3fb build/udp_pic32mz_ef_sk/production/_ext/1164207549/tcpip_packet.o
 .debug_abbrev  0x000077a1      0x138 c:/program files (x86)/microchip/xc32/v1.42/bin/bin/../../lib/gcc/pic32mx/4.8.3/fpu64\libgcc.a(_udivdi3.o)
 .debug_abbrev  0x000078d9       0x28 c:/program files (x86)/microchip/xc32/v1.42/bin/bin/../../lib/gcc/pic32mx/4.8.3/../../../../pic32mx/lib/fpu64\libpic32.a(default-bootstrap-exception-handler.o)
 .debug_abbrev  0x00007901       0x28 c:/program files (x86)/microchip/xc32/v1.42/bin/bin/../../lib/gcc/pic32mx/4.8.3/../../../../pic32mx/lib/fpu64\libpic32.a(default-on-reset.o)
 .debug_abbrev  0x00007929       0x28 c:/program files (x86)/microchip/xc32/v1.42/bin/bin/../../lib/gcc/pic32mx/4.8.3/../../../../pic32mx/lib/fpu64\libpic32.a(default-on-bootstrap.o)
 .debug_abbrev  0x00007951       0x28 c:/program files (x86)/microchip/xc32/v1.42/bin/bin/../../lib/gcc/pic32mx/4.8.3/../../../../pic32mx/lib/fpu64\libpic32.a(defaultinterrupt.o)
 .debug_abbrev  0x00007979       0x28 c:/program files (x86)/microchip/xc32/v1.42/bin/bin/../../lib/gcc/pic32mx/4.8.3/../../../../pic32mx/lib/fpu64\libpic32.a(default-cache-err-exception-handler.o)
 .debug_abbrev  0x000079a1       0x28 c:/program files (x86)/microchip/xc32/v1.42/bin/bin/../../lib/gcc/pic32mx/4.8.3/../../../../pic32mx/lib/fpu64\libpic32.a(default-simple-tlb-refill-exception-handler.o)
 .debug_abbrev  0x000079c9       0x28 c:/program files (x86)/microchip/xc32/v1.42/bin/bin/../../lib/gcc/pic32mx/4.8.3/../../../../pic32mx/lib/fpu64\libc.a(atoi.o)
 .debug_abbrev  0x000079f1       0x28 c:/program files (x86)/microchip/xc32/v1.42/bin/bin/../../lib/gcc/pic32mx/4.8.3/../../../../pic32mx/lib/fpu64\libc.a(calloc.o)
 .debug_abbrev  0x00007a19       0x28 c:/program files (x86)/microchip/xc32/v1.42/bin/bin/../../lib/gcc/pic32mx/4.8.3/../../../../pic32mx/lib/fpu64\libc.a(ctypef.o)
 .debug_abbrev  0x00007a41       0x47 c:/program files (x86)/microchip/xc32/v1.42/bin/bin/../../lib/gcc/pic32mx/4.8.3/../../../../pic32mx/lib/fpu64\libc.a(malloc.o)
 .debug_abbrev  0x00007a88       0x47 c:/program files (x86)/microchip/xc32/v1.42/bin/bin/../../lib/gcc/pic32mx/4.8.3/../../../../pic32mx/lib/fpu64\libc.a(rand.o)
 .debug_abbrev  0x00007acf       0x28 c:/program files (x86)/microchip/xc32/v1.42/bin/bin/../../lib/gcc/pic32mx/4.8.3/../../../../pic32mx/lib/fpu64\libc.a(strncpy.o)
 .debug_abbrev  0x00007af7       0x28 c:/program files (x86)/microchip/xc32/v1.42/bin/bin/../../lib/gcc/pic32mx/4.8.3/../../../../pic32mx/lib/fpu64\libc.a(strtol.o)
 .debug_abbrev  0x00007b1f       0x28 c:/program files (x86)/microchip/xc32/v1.42/bin/bin/../../lib/gcc/pic32mx/4.8.3/../../../../pic32mx/lib/fpu64\libc.a(snprintf_cdnopsuxX.eo)
 .debug_abbrev  0x00007b47       0x28 c:/program files (x86)/microchip/xc32/v1.42/bin/bin/../../lib/gcc/pic32mx/4.8.3/../../../../pic32mx/lib/fpu64\libc.a(sprintf_cdnopuxX.eo)
 .debug_abbrev  0x00007b6f       0x28 c:/program files (x86)/microchip/xc32/v1.42/bin/bin/../../lib/gcc/pic32mx/4.8.3/../../../../pic32mx/lib/fpu64\libc.a(vsnprintf_cdnopsuxX.eo)
 .debug_abbrev  0x00007b97       0x28 c:/program files (x86)/microchip/xc32/v1.42/bin/bin/../../lib/gcc/pic32mx/4.8.3/../../../../pic32mx/lib/fpu64\libc.a(doprnt_cdnopsuxX.eo)
 .debug_abbrev  0x00007bbf       0x28 c:/program files (x86)/microchip/xc32/v1.42/bin/bin/../../lib/gcc/pic32mx/4.8.3/../../../../pic32mx/lib/fpu64\libc.a(_fputc_simple.o)
 .debug_abbrev  0x00007be7       0x28 c:/program files (x86)/microchip/xc32/v1.42/bin/bin/../../lib/gcc/pic32mx/4.8.3/../../../../pic32mx/lib/fpu64\libc.a(_flsbuf_simple.o)
 .debug_abbrev  0x00007c0f       0x54 c:/program files (x86)/microchip/xc32/v1.42/bin/bin/../../lib/gcc/pic32mx/4.8.3/../../../../pic32mx/lib/fpu64\libpic32.a(sbrk.o)
 .debug_abbrev  0x00007c63       0x28 c:/program files (x86)/microchip/xc32/v1.42/bin/bin/../../lib/gcc/pic32mx/4.8.3/../../../../pic32mx/lib/fpu64\libpic32.a(write.o)
 .debug_abbrev  0x00007c8b       0x28 c:/program files (x86)/microchip/xc32/v1.42/bin/bin/../../lib/gcc/pic32mx/4.8.3/../../../../pic32mx/lib/fpu64\libpic32.a(_mon_putc.o)
 .debug_abbrev  0x00007cb3      0x147 c:/program files (x86)/microchip/xc32/v1.42/bin/bin/../../lib/gcc/pic32mx/4.8.3/fpu64\libgcc.a(_umoddi3.o)

.debug_line     0x00000000     0xfd5a
 *(.debug_line)
 .debug_line    0x00000000      0x354 build/udp_pic32mz_ef_sk/production/_ext/938613576/bsp.o
 .debug_line    0x00000354      0x5c8 build/udp_pic32mz_ef_sk/production/_ext/1991045727/sys_clk_pic32mz.o
 .debug_line    0x0000091c      0x691 build/udp_pic32mz_ef_sk/production/_ext/2092611130/sys_devcon.o
 .debug_line    0x00000fad      0x5d7 build/udp_pic32mz_ef_sk/production/_ext/2092611130/sys_devcon_pic32mz.o
 .debug_line    0x00001584        0x0 build/udp_pic32mz_ef_sk/production/_ext/1633430821/sys_memory_smc_static.o
 .debug_line    0x00001584      0xa1e build/udp_pic32mz_ef_sk/production/_ext/641914703/sys_ports_static.o
 .debug_line    0x00001fa2      0x377 build/udp_pic32mz_ef_sk/production/_ext/1532728844/sys_reset.o
 .debug_line    0x00002319      0x864 build/udp_pic32mz_ef_sk/production/_ext/2145045400/system_init.o
 .debug_line    0x00002b7d      0x3ad build/udp_pic32mz_ef_sk/production/_ext/2145045400/system_interrupt.o
 .debug_line    0x00002f2a      0x1e2 build/udp_pic32mz_ef_sk/production/_ext/2145045400/system_exceptions.o
 .debug_line    0x0000310c      0x2fe build/udp_pic32mz_ef_sk/production/_ext/2145045400/system_tasks.o
 .debug_line    0x0000340a       0xba build/udp_pic32mz_ef_sk/production/_ext/1360937237/main.o
 .debug_line    0x000034c4      0x207 build/udp_pic32mz_ef_sk/production/_ext/1360937237/app.o
 .debug_line    0x000036cb      0x39b build/udp_pic32mz_ef_sk/production/_ext/615392287/datastream.o
 .debug_line    0x00003a66      0x67c build/udp_pic32mz_ef_sk/production/_ext/615392287/datastream_udp.o
 .debug_line    0x000040e2      0x5ac build/udp_pic32mz_ef_sk/production/_ext/686445382/bootloader.o
 .debug_line    0x0000468e      0x587 build/udp_pic32mz_ef_sk/production/_ext/686445382/nvm.o
 .debug_line    0x00004c15      0xfe4 build/udp_pic32mz_ef_sk/production/_ext/1697634946/drv_ethmac.o
 .debug_line    0x00005bf9      0xcda build/udp_pic32mz_ef_sk/production/_ext/1697634946/drv_ethmac_lib.o
 .debug_line    0x000068d3     0x106b build/udp_pic32mz_ef_sk/production/_ext/521481140/drv_ethphy.o
 .debug_line    0x0000793e      0x32c build/udp_pic32mz_ef_sk/production/_ext/521481140/drv_extphy_smsc8740.o
 .debug_line    0x00007c6a      0xc21 build/udp_pic32mz_ef_sk/production/_ext/941160041/drv_tmr.o
 .debug_line    0x0000888b      0x34d build/udp_pic32mz_ef_sk/production/_ext/1042686532/sys_int_pic32.o
 .debug_line    0x00008bd8      0x289 build/udp_pic32mz_ef_sk/production/_ext/470001640/sys_random.o
 .debug_line    0x00008e61      0x65b build/udp_pic32mz_ef_sk/production/_ext/2110151058/sys_tmr.o
 .debug_line    0x000094bc      0x1a2 build/udp_pic32mz_ef_sk/production/_ext/1886247299/helpers.o
 .debug_line    0x0000965e      0x7da build/udp_pic32mz_ef_sk/production/_ext/1164207549/ipv4.o
 .debug_line    0x00009e38      0xdf6 build/udp_pic32mz_ef_sk/production/_ext/1164207549/udp.o
 .debug_line    0x0000ac2e      0x2be build/udp_pic32mz_ef_sk/production/_ext/1164207549/tcpip_heap_alloc.o
 .debug_line    0x0000aeec      0x4e5 build/udp_pic32mz_ef_sk/production/_ext/1164207549/tcpip_heap_internal.o
 .debug_line    0x0000b3d1      0x9ad build/udp_pic32mz_ef_sk/production/_ext/1164207549/arp.o
 .debug_line    0x0000bd7e      0x25c build/udp_pic32mz_ef_sk/production/_ext/1164207549/dhcp.o
 .debug_line    0x0000bfda      0x291 build/udp_pic32mz_ef_sk/production/_ext/1164207549/dns.o
 .debug_line    0x0000c26b      0x132 build/udp_pic32mz_ef_sk/production/_ext/1164207549/hash_fnv.o
 .debug_line    0x0000c39d      0x1e1 build/udp_pic32mz_ef_sk/production/_ext/1164207549/oahash.o
 .debug_line    0x0000c57e      0xe49 build/udp_pic32mz_ef_sk/production/_ext/1164207549/tcpip_helpers.o
 .debug_line    0x0000d3c7       0xfd build/udp_pic32mz_ef_sk/production/_ext/1164207549/tcpip_helper_c32.o
 .debug_line    0x0000d4c4     0x1305 build/udp_pic32mz_ef_sk/production/_ext/1164207549/tcpip_manager.o
 .debug_line    0x0000e7c9      0x307 build/udp_pic32mz_ef_sk/production/_ext/1164207549/tcpip_notify.o
 .debug_line    0x0000ead0      0x45f build/udp_pic32mz_ef_sk/production/_ext/1164207549/tcpip_packet.o
 .debug_line    0x0000ef2f       0xff c:/program files (x86)/microchip/xc32/v1.42/bin/bin/../../lib/gcc/pic32mx/4.8.3/fpu64\libgcc.a(_udivdi3.o)
 .debug_line    0x0000f02e       0xa9 c:/program files (x86)/microchip/xc32/v1.42/bin/bin/../../lib/gcc/pic32mx/4.8.3/../../../../pic32mx/lib/fpu64\libpic32.a(default-bootstrap-exception-handler.o)
 .debug_line    0x0000f0d7       0x96 c:/program files (x86)/microchip/xc32/v1.42/bin/bin/../../lib/gcc/pic32mx/4.8.3/../../../../pic32mx/lib/fpu64\libpic32.a(default-on-reset.o)
 .debug_line    0x0000f16d       0x9a c:/program files (x86)/microchip/xc32/v1.42/bin/bin/../../lib/gcc/pic32mx/4.8.3/../../../../pic32mx/lib/fpu64\libpic32.a(default-on-bootstrap.o)
 .debug_line    0x0000f207       0xa8 c:/program files (x86)/microchip/xc32/v1.42/bin/bin/../../lib/gcc/pic32mx/4.8.3/../../../../pic32mx/lib/fpu64\libpic32.a(defaultinterrupt.o)
 .debug_line    0x0000f2af       0xa9 c:/program files (x86)/microchip/xc32/v1.42/bin/bin/../../lib/gcc/pic32mx/4.8.3/../../../../pic32mx/lib/fpu64\libpic32.a(default-cache-err-exception-handler.o)
 .debug_line    0x0000f358       0xb1 c:/program files (x86)/microchip/xc32/v1.42/bin/bin/../../lib/gcc/pic32mx/4.8.3/../../../../pic32mx/lib/fpu64\libpic32.a(default-simple-tlb-refill-exception-handler.o)
 .debug_line    0x0000f409       0x80 c:/program files (x86)/microchip/xc32/v1.42/bin/bin/../../lib/gcc/pic32mx/4.8.3/../../../../pic32mx/lib/fpu64\libc.a(atoi.o)
 .debug_line    0x0000f489       0x82 c:/program files (x86)/microchip/xc32/v1.42/bin/bin/../../lib/gcc/pic32mx/4.8.3/../../../../pic32mx/lib/fpu64\libc.a(calloc.o)
 .debug_line    0x0000f50b        0x0 c:/program files (x86)/microchip/xc32/v1.42/bin/bin/../../lib/gcc/pic32mx/4.8.3/../../../../pic32mx/lib/fpu64\libc.a(ctype.o)
 .debug_line    0x0000f50b       0x82 c:/program files (x86)/microchip/xc32/v1.42/bin/bin/../../lib/gcc/pic32mx/4.8.3/../../../../pic32mx/lib/fpu64\libc.a(ctypef.o)
 .debug_line    0x0000f58d       0x82 c:/program files (x86)/microchip/xc32/v1.42/bin/bin/../../lib/gcc/pic32mx/4.8.3/../../../../pic32mx/lib/fpu64\libc.a(malloc.o)
 .debug_line    0x0000f60f       0x80 c:/program files (x86)/microchip/xc32/v1.42/bin/bin/../../lib/gcc/pic32mx/4.8.3/../../../../pic32mx/lib/fpu64\libc.a(rand.o)
 .debug_line    0x0000f68f       0x83 c:/program files (x86)/microchip/xc32/v1.42/bin/bin/../../lib/gcc/pic32mx/4.8.3/../../../../pic32mx/lib/fpu64\libc.a(strncpy.o)
 .debug_line    0x0000f712       0x82 c:/program files (x86)/microchip/xc32/v1.42/bin/bin/../../lib/gcc/pic32mx/4.8.3/../../../../pic32mx/lib/fpu64\libc.a(strtol.o)
 .debug_line    0x0000f794       0x84 c:/program files (x86)/microchip/xc32/v1.42/bin/bin/../../lib/gcc/pic32mx/4.8.3/../../../../pic32mx/lib/fpu64\libc.a(snprintf_cdnopsuxX.eo)
 .debug_line    0x0000f818       0x83 c:/program files (x86)/microchip/xc32/v1.42/bin/bin/../../lib/gcc/pic32mx/4.8.3/../../../../pic32mx/lib/fpu64\libc.a(sprintf_cdnopuxX.eo)
 .debug_line    0x0000f89b       0x85 c:/program files (x86)/microchip/xc32/v1.42/bin/bin/../../lib/gcc/pic32mx/4.8.3/../../../../pic32mx/lib/fpu64\libc.a(vsnprintf_cdnopsuxX.eo)
 .debug_line    0x0000f920        0x0 c:/program files (x86)/microchip/xc32/v1.42/bin/bin/../../lib/gcc/pic32mx/4.8.3/../../../../pic32mx/lib/fpu64\libc.a(errno.o)
 .debug_line    0x0000f920       0x82 c:/program files (x86)/microchip/xc32/v1.42/bin/bin/../../lib/gcc/pic32mx/4.8.3/../../../../pic32mx/lib/fpu64\libc.a(doprnt_cdnopsuxX.eo)
 .debug_line    0x0000f9a2       0x81 c:/program files (x86)/microchip/xc32/v1.42/bin/bin/../../lib/gcc/pic32mx/4.8.3/../../../../pic32mx/lib/fpu64\libc.a(_fputc_simple.o)
 .debug_line    0x0000fa23        0x0 c:/program files (x86)/microchip/xc32/v1.42/bin/bin/../../lib/gcc/pic32mx/4.8.3/../../../../pic32mx/lib/fpu64\libc.a(_iob.o)
 .debug_line    0x0000fa23       0x82 c:/program files (x86)/microchip/xc32/v1.42/bin/bin/../../lib/gcc/pic32mx/4.8.3/../../../../pic32mx/lib/fpu64\libc.a(_flsbuf_simple.o)
 .debug_line    0x0000faa5       0x8a c:/program files (x86)/microchip/xc32/v1.42/bin/bin/../../lib/gcc/pic32mx/4.8.3/../../../../pic32mx/lib/fpu64\libpic32.a(sbrk.o)
 .debug_line    0x0000fb2f       0x8b c:/program files (x86)/microchip/xc32/v1.42/bin/bin/../../lib/gcc/pic32mx/4.8.3/../../../../pic32mx/lib/fpu64\libpic32.a(write.o)
 .debug_line    0x0000fbba       0x8f c:/program files (x86)/microchip/xc32/v1.42/bin/bin/../../lib/gcc/pic32mx/4.8.3/../../../../pic32mx/lib/fpu64\libpic32.a(_mon_putc.o)
 .debug_line    0x0000fc49        0x0 c:/program files (x86)/microchip/xc32/v1.42/bin/bin/../../lib/gcc/pic32mx/4.8.3/../../../../pic32mx/lib/fpu64\libpic32.a(xc32_uart.o)
 .debug_line    0x0000fc49      0x111 c:/program files (x86)/microchip/xc32/v1.42/bin/bin/../../lib/gcc/pic32mx/4.8.3/fpu64\libgcc.a(_umoddi3.o)

.debug_frame    0x00000000     0x46dc
 *(.debug_frame)
 .debug_frame   0x00000000       0xb8 build/udp_pic32mz_ef_sk/production/_ext/938613576/bsp.o
 .debug_frame   0x000000b8       0xa0 build/udp_pic32mz_ef_sk/production/_ext/1991045727/sys_clk_pic32mz.o
 .debug_frame   0x00000158       0xe8 build/udp_pic32mz_ef_sk/production/_ext/2092611130/sys_devcon.o
 .debug_frame   0x00000240      0x220 build/udp_pic32mz_ef_sk/production/_ext/2092611130/sys_devcon_pic32mz.o
 .debug_frame   0x00000460      0x278 build/udp_pic32mz_ef_sk/production/_ext/641914703/sys_ports_static.o
 .debug_frame   0x000006d8       0x50 build/udp_pic32mz_ef_sk/production/_ext/1532728844/sys_reset.o
 .debug_frame   0x00000728       0x44 build/udp_pic32mz_ef_sk/production/_ext/2145045400/system_init.o
 .debug_frame   0x0000076c      0x158 build/udp_pic32mz_ef_sk/production/_ext/2145045400/system_interrupt.o
 .debug_frame   0x000008c4       0x28 build/udp_pic32mz_ef_sk/production/_ext/2145045400/system_exceptions.o
 .debug_frame   0x000008ec       0x28 build/udp_pic32mz_ef_sk/production/_ext/2145045400/system_tasks.o
 .debug_frame   0x00000914       0x28 build/udp_pic32mz_ef_sk/production/_ext/1360937237/main.o
 .debug_frame   0x0000093c       0x58 build/udp_pic32mz_ef_sk/production/_ext/1360937237/app.o
 .debug_frame   0x00000994       0xa0 build/udp_pic32mz_ef_sk/production/_ext/615392287/datastream.o
 .debug_frame   0x00000a34       0x78 build/udp_pic32mz_ef_sk/production/_ext/615392287/datastream_udp.o
 .debug_frame   0x00000aac       0xb4 build/udp_pic32mz_ef_sk/production/_ext/686445382/bootloader.o
 .debug_frame   0x00000b60       0xd8 build/udp_pic32mz_ef_sk/production/_ext/686445382/nvm.o
 .debug_frame   0x00000c38      0x45c build/udp_pic32mz_ef_sk/production/_ext/1697634946/drv_ethmac.o
 .debug_frame   0x00001094      0x274 build/udp_pic32mz_ef_sk/production/_ext/1697634946/drv_ethmac_lib.o
 .debug_frame   0x00001308      0x6d4 build/udp_pic32mz_ef_sk/production/_ext/521481140/drv_ethphy.o
 .debug_frame   0x000019dc       0x60 build/udp_pic32mz_ef_sk/production/_ext/521481140/drv_extphy_smsc8740.o
 .debug_frame   0x00001a3c      0x2ac build/udp_pic32mz_ef_sk/production/_ext/941160041/drv_tmr.o
 .debug_frame   0x00001ce8       0x90 build/udp_pic32mz_ef_sk/production/_ext/1042686532/sys_int_pic32.o
 .debug_frame   0x00001d78       0x68 build/udp_pic32mz_ef_sk/production/_ext/470001640/sys_random.o
 .debug_frame   0x00001de0      0x250 build/udp_pic32mz_ef_sk/production/_ext/2110151058/sys_tmr.o
 .debug_frame   0x00002030       0x74 build/udp_pic32mz_ef_sk/production/_ext/1886247299/helpers.o
 .debug_frame   0x000020a4      0x248 build/udp_pic32mz_ef_sk/production/_ext/1164207549/ipv4.o
 .debug_frame   0x000022ec      0x590 build/udp_pic32mz_ef_sk/production/_ext/1164207549/udp.o
 .debug_frame   0x0000287c       0x98 build/udp_pic32mz_ef_sk/production/_ext/1164207549/tcpip_heap_alloc.o
 .debug_frame   0x00002914       0xec build/udp_pic32mz_ef_sk/production/_ext/1164207549/tcpip_heap_internal.o
 .debug_frame   0x00002a00      0x3c8 build/udp_pic32mz_ef_sk/production/_ext/1164207549/arp.o
 .debug_frame   0x00002dc8       0x80 build/udp_pic32mz_ef_sk/production/_ext/1164207549/dhcp.o
 .debug_frame   0x00002e48       0xb0 build/udp_pic32mz_ef_sk/production/_ext/1164207549/dns.o
 .debug_frame   0x00002ef8       0x30 build/udp_pic32mz_ef_sk/production/_ext/1164207549/hash_fnv.o
 .debug_frame   0x00002f28       0xb4 build/udp_pic32mz_ef_sk/production/_ext/1164207549/oahash.o
 .debug_frame   0x00002fdc      0x630 build/udp_pic32mz_ef_sk/production/_ext/1164207549/tcpip_helpers.o
 .debug_frame   0x0000360c      0x980 build/udp_pic32mz_ef_sk/production/_ext/1164207549/tcpip_manager.o
 .debug_frame   0x00003f8c       0x94 build/udp_pic32mz_ef_sk/production/_ext/1164207549/tcpip_notify.o
 .debug_frame   0x00004020      0x134 build/udp_pic32mz_ef_sk/production/_ext/1164207549/tcpip_packet.o
 .debug_frame   0x00004154       0x20 c:/program files (x86)/microchip/xc32/v1.42/bin/bin/../../lib/gcc/pic32mx/4.8.3/fpu64\libgcc.a(_udivdi3.o)
 .debug_frame   0x00004174       0x2c c:/program files (x86)/microchip/xc32/v1.42/bin/bin/../../lib/gcc/pic32mx/4.8.3/../../../../pic32mx/lib/fpu64\libpic32.a(default-bootstrap-exception-handler.o)
 .debug_frame   0x000041a0       0x20 c:/program files (x86)/microchip/xc32/v1.42/bin/bin/../../lib/gcc/pic32mx/4.8.3/../../../../pic32mx/lib/fpu64\libpic32.a(default-on-reset.o)
 .debug_frame   0x000041c0       0x20 c:/program files (x86)/microchip/xc32/v1.42/bin/bin/../../lib/gcc/pic32mx/4.8.3/../../../../pic32mx/lib/fpu64\libpic32.a(default-on-bootstrap.o)
 .debug_frame   0x000041e0       0x20 c:/program files (x86)/microchip/xc32/v1.42/bin/bin/../../lib/gcc/pic32mx/4.8.3/../../../../pic32mx/lib/fpu64\libpic32.a(defaultinterrupt.o)
 .debug_frame   0x00004200       0x2c c:/program files (x86)/microchip/xc32/v1.42/bin/bin/../../lib/gcc/pic32mx/4.8.3/../../../../pic32mx/lib/fpu64\libpic32.a(default-cache-err-exception-handler.o)
 .debug_frame   0x0000422c       0x2c c:/program files (x86)/microchip/xc32/v1.42/bin/bin/../../lib/gcc/pic32mx/4.8.3/../../../../pic32mx/lib/fpu64\libpic32.a(default-simple-tlb-refill-exception-handler.o)
 .debug_frame   0x00004258       0x20 c:/program files (x86)/microchip/xc32/v1.42/bin/bin/../../lib/gcc/pic32mx/4.8.3/../../../../pic32mx/lib/fpu64\libc.a(atoi.o)
 .debug_frame   0x00004278       0x28 c:/program files (x86)/microchip/xc32/v1.42/bin/bin/../../lib/gcc/pic32mx/4.8.3/../../../../pic32mx/lib/fpu64\libc.a(calloc.o)
 .debug_frame   0x000042a0      0x120 c:/program files (x86)/microchip/xc32/v1.42/bin/bin/../../lib/gcc/pic32mx/4.8.3/../../../../pic32mx/lib/fpu64\libc.a(ctypef.o)
 .debug_frame   0x000043c0       0x68 c:/program files (x86)/microchip/xc32/v1.42/bin/bin/../../lib/gcc/pic32mx/4.8.3/../../../../pic32mx/lib/fpu64\libc.a(malloc.o)
 .debug_frame   0x00004428       0x30 c:/program files (x86)/microchip/xc32/v1.42/bin/bin/../../lib/gcc/pic32mx/4.8.3/../../../../pic32mx/lib/fpu64\libc.a(rand.o)
 .debug_frame   0x00004458       0x20 c:/program files (x86)/microchip/xc32/v1.42/bin/bin/../../lib/gcc/pic32mx/4.8.3/../../../../pic32mx/lib/fpu64\libc.a(strncpy.o)
 .debug_frame   0x00004478       0x58 c:/program files (x86)/microchip/xc32/v1.42/bin/bin/../../lib/gcc/pic32mx/4.8.3/../../../../pic32mx/lib/fpu64\libc.a(strtol.o)
 .debug_frame   0x000044d0       0x28 c:/program files (x86)/microchip/xc32/v1.42/bin/bin/../../lib/gcc/pic32mx/4.8.3/../../../../pic32mx/lib/fpu64\libc.a(snprintf_cdnopsuxX.eo)
 .debug_frame   0x000044f8       0x28 c:/program files (x86)/microchip/xc32/v1.42/bin/bin/../../lib/gcc/pic32mx/4.8.3/../../../../pic32mx/lib/fpu64\libc.a(sprintf_cdnopuxX.eo)
 .debug_frame   0x00004520       0x2c c:/program files (x86)/microchip/xc32/v1.42/bin/bin/../../lib/gcc/pic32mx/4.8.3/../../../../pic32mx/lib/fpu64\libc.a(vsnprintf_cdnopsuxX.eo)
 .debug_frame   0x0000454c       0x38 c:/program files (x86)/microchip/xc32/v1.42/bin/bin/../../lib/gcc/pic32mx/4.8.3/../../../../pic32mx/lib/fpu64\libc.a(doprnt_cdnopsuxX.eo)
 .debug_frame   0x00004584       0x2c c:/program files (x86)/microchip/xc32/v1.42/bin/bin/../../lib/gcc/pic32mx/4.8.3/../../../../pic32mx/lib/fpu64\libc.a(_fputc_simple.o)
 .debug_frame   0x000045b0       0x28 c:/program files (x86)/microchip/xc32/v1.42/bin/bin/../../lib/gcc/pic32mx/4.8.3/../../../../pic32mx/lib/fpu64\libc.a(_flsbuf_simple.o)
 .debug_frame   0x000045d8       0x84 c:/program files (x86)/microchip/xc32/v1.42/bin/bin/../../lib/gcc/pic32mx/4.8.3/../../../../pic32mx/lib/fpu64\libpic32.a(sbrk.o)
 .debug_frame   0x0000465c       0x38 c:/program files (x86)/microchip/xc32/v1.42/bin/bin/../../lib/gcc/pic32mx/4.8.3/../../../../pic32mx/lib/fpu64\libpic32.a(write.o)
 .debug_frame   0x00004694       0x28 c:/program files (x86)/microchip/xc32/v1.42/bin/bin/../../lib/gcc/pic32mx/4.8.3/../../../../pic32mx/lib/fpu64\libpic32.a(_mon_putc.o)
 .debug_frame   0x000046bc       0x20 c:/program files (x86)/microchip/xc32/v1.42/bin/bin/../../lib/gcc/pic32mx/4.8.3/fpu64\libgcc.a(_umoddi3.o)

.debug_str      0x00000000     0x147c
 *(.debug_str)
 .debug_str     0x00000000       0x15 build/udp_pic32mz_ef_sk/production/_ext/938613576/bsp.o
 .debug_str     0x00000015       0x46 build/udp_pic32mz_ef_sk/production/_ext/1991045727/sys_clk_pic32mz.o
 .debug_str     0x0000005b       0x16 build/udp_pic32mz_ef_sk/production/_ext/2092611130/sys_devcon.o
 .debug_str     0x00000071       0x1a build/udp_pic32mz_ef_sk/production/_ext/2092611130/sys_devcon_pic32mz.o
 .debug_str     0x0000008b        0x0 build/udp_pic32mz_ef_sk/production/_ext/1633430821/sys_memory_smc_static.o
 .debug_str     0x0000008b       0xa1 build/udp_pic32mz_ef_sk/production/_ext/641914703/sys_ports_static.o
 .debug_str     0x0000012c       0x17 build/udp_pic32mz_ef_sk/production/_ext/1532728844/sys_reset.o
 .debug_str     0x00000143       0x5f build/udp_pic32mz_ef_sk/production/_ext/2145045400/system_init.o
 .debug_str     0x000001a2        0x0 build/udp_pic32mz_ef_sk/production/_ext/2145045400/system_interrupt.o
 .debug_str     0x000001a2        0x0 build/udp_pic32mz_ef_sk/production/_ext/2145045400/system_exceptions.o
 .debug_str     0x000001a2        0x0 build/udp_pic32mz_ef_sk/production/_ext/2145045400/system_tasks.o
 .debug_str     0x000001a2        0x0 build/udp_pic32mz_ef_sk/production/_ext/1360937237/main.o
 .debug_str     0x000001a2        0x0 build/udp_pic32mz_ef_sk/production/_ext/1360937237/app.o
 .debug_str     0x000001a2       0x14 build/udp_pic32mz_ef_sk/production/_ext/615392287/datastream.o
 .debug_str     0x000001b6       0x2b build/udp_pic32mz_ef_sk/production/_ext/615392287/datastream_udp.o
 .debug_str     0x000001e1        0xe build/udp_pic32mz_ef_sk/production/_ext/686445382/bootloader.o
 .debug_str     0x000001ef       0x3d build/udp_pic32mz_ef_sk/production/_ext/686445382/nvm.o
 .debug_str     0x0000022c      0x1dd build/udp_pic32mz_ef_sk/production/_ext/1697634946/drv_ethmac.o
 .debug_str     0x00000409      0x191 build/udp_pic32mz_ef_sk/production/_ext/1697634946/drv_ethmac_lib.o
 .debug_str     0x0000059a      0x49d build/udp_pic32mz_ef_sk/production/_ext/521481140/drv_ethphy.o
 .debug_str     0x00000a37       0x2a build/udp_pic32mz_ef_sk/production/_ext/521481140/drv_extphy_smsc8740.o
 .debug_str     0x00000a61       0xc6 build/udp_pic32mz_ef_sk/production/_ext/941160041/drv_tmr.o
 .debug_str     0x00000b27       0x2d build/udp_pic32mz_ef_sk/production/_ext/1042686532/sys_int_pic32.o
 .debug_str     0x00000b54       0x1d build/udp_pic32mz_ef_sk/production/_ext/470001640/sys_random.o
 .debug_str     0x00000b71       0x7d build/udp_pic32mz_ef_sk/production/_ext/2110151058/sys_tmr.o
 .debug_str     0x00000bee        0x0 build/udp_pic32mz_ef_sk/production/_ext/1886247299/helpers.o
 .debug_str     0x00000bee      0x109 build/udp_pic32mz_ef_sk/production/_ext/1164207549/ipv4.o
 .debug_str     0x00000cf7      0x182 build/udp_pic32mz_ef_sk/production/_ext/1164207549/udp.o
 .debug_str     0x00000e79       0x70 build/udp_pic32mz_ef_sk/production/_ext/1164207549/tcpip_heap_alloc.o
 .debug_str     0x00000ee9       0x59 build/udp_pic32mz_ef_sk/production/_ext/1164207549/tcpip_heap_internal.o
 .debug_str     0x00000f42      0x121 build/udp_pic32mz_ef_sk/production/_ext/1164207549/arp.o
 .debug_str     0x00001063        0x5 build/udp_pic32mz_ef_sk/production/_ext/1164207549/dhcp.o
 .debug_str     0x00001068        0x9 build/udp_pic32mz_ef_sk/production/_ext/1164207549/dns.o
 .debug_str     0x00001071        0x0 build/udp_pic32mz_ef_sk/production/_ext/1164207549/hash_fnv.o
 .debug_str     0x00001071        0xa build/udp_pic32mz_ef_sk/production/_ext/1164207549/oahash.o
 .debug_str     0x0000107b       0xa6 build/udp_pic32mz_ef_sk/production/_ext/1164207549/tcpip_helpers.o
 .debug_str     0x00001121      0x2ec build/udp_pic32mz_ef_sk/production/_ext/1164207549/tcpip_manager.o
 .debug_str     0x0000140d       0x33 build/udp_pic32mz_ef_sk/production/_ext/1164207549/tcpip_notify.o
 .debug_str     0x00001440       0x3c build/udp_pic32mz_ef_sk/production/_ext/1164207549/tcpip_packet.o
 .debug_str     0x0000147c        0x0 c:/program files (x86)/microchip/xc32/v1.42/bin/bin/../../lib/gcc/pic32mx/4.8.3/fpu64\libgcc.a(_udivdi3.o)
 .debug_str     0x0000147c        0x0 c:/program files (x86)/microchip/xc32/v1.42/bin/bin/../../lib/gcc/pic32mx/4.8.3/../../../../pic32mx/lib/fpu64\libpic32.a(default-bootstrap-exception-handler.o)
 .debug_str     0x0000147c        0x0 c:/program files (x86)/microchip/xc32/v1.42/bin/bin/../../lib/gcc/pic32mx/4.8.3/../../../../pic32mx/lib/fpu64\libpic32.a(default-on-reset.o)
 .debug_str     0x0000147c        0x0 c:/program files (x86)/microchip/xc32/v1.42/bin/bin/../../lib/gcc/pic32mx/4.8.3/../../../../pic32mx/lib/fpu64\libpic32.a(default-on-bootstrap.o)
 .debug_str     0x0000147c        0x0 c:/program files (x86)/microchip/xc32/v1.42/bin/bin/../../lib/gcc/pic32mx/4.8.3/../../../../pic32mx/lib/fpu64\libpic32.a(defaultinterrupt.o)
 .debug_str     0x0000147c        0x0 c:/program files (x86)/microchip/xc32/v1.42/bin/bin/../../lib/gcc/pic32mx/4.8.3/../../../../pic32mx/lib/fpu64\libpic32.a(default-cache-err-exception-handler.o)
 .debug_str     0x0000147c        0x0 c:/program files (x86)/microchip/xc32/v1.42/bin/bin/../../lib/gcc/pic32mx/4.8.3/../../../../pic32mx/lib/fpu64\libpic32.a(default-simple-tlb-refill-exception-handler.o)
 .debug_str     0x0000147c        0x0 c:/program files (x86)/microchip/xc32/v1.42/bin/bin/../../lib/gcc/pic32mx/4.8.3/../../../../pic32mx/lib/fpu64\libc.a(atoi.o)
 .debug_str     0x0000147c        0x0 c:/program files (x86)/microchip/xc32/v1.42/bin/bin/../../lib/gcc/pic32mx/4.8.3/../../../../pic32mx/lib/fpu64\libc.a(calloc.o)
 .debug_str     0x0000147c        0x0 c:/program files (x86)/microchip/xc32/v1.42/bin/bin/../../lib/gcc/pic32mx/4.8.3/../../../../pic32mx/lib/fpu64\libc.a(ctype.o)
 .debug_str     0x0000147c        0x0 c:/program files (x86)/microchip/xc32/v1.42/bin/bin/../../lib/gcc/pic32mx/4.8.3/../../../../pic32mx/lib/fpu64\libc.a(ctypef.o)
 .debug_str     0x0000147c        0x0 c:/program files (x86)/microchip/xc32/v1.42/bin/bin/../../lib/gcc/pic32mx/4.8.3/../../../../pic32mx/lib/fpu64\libc.a(malloc.o)
 .debug_str     0x0000147c        0x0 c:/program files (x86)/microchip/xc32/v1.42/bin/bin/../../lib/gcc/pic32mx/4.8.3/../../../../pic32mx/lib/fpu64\libc.a(rand.o)
 .debug_str     0x0000147c        0x0 c:/program files (x86)/microchip/xc32/v1.42/bin/bin/../../lib/gcc/pic32mx/4.8.3/../../../../pic32mx/lib/fpu64\libc.a(strncpy.o)
 .debug_str     0x0000147c        0x0 c:/program files (x86)/microchip/xc32/v1.42/bin/bin/../../lib/gcc/pic32mx/4.8.3/../../../../pic32mx/lib/fpu64\libc.a(strtol.o)
 .debug_str     0x0000147c        0x0 c:/program files (x86)/microchip/xc32/v1.42/bin/bin/../../lib/gcc/pic32mx/4.8.3/../../../../pic32mx/lib/fpu64\libc.a(snprintf_cdnopsuxX.eo)
 .debug_str     0x0000147c        0x0 c:/program files (x86)/microchip/xc32/v1.42/bin/bin/../../lib/gcc/pic32mx/4.8.3/../../../../pic32mx/lib/fpu64\libc.a(sprintf_cdnopuxX.eo)
 .debug_str     0x0000147c        0x0 c:/program files (x86)/microchip/xc32/v1.42/bin/bin/../../lib/gcc/pic32mx/4.8.3/../../../../pic32mx/lib/fpu64\libc.a(vsnprintf_cdnopsuxX.eo)
 .debug_str     0x0000147c        0x0 c:/program files (x86)/microchip/xc32/v1.42/bin/bin/../../lib/gcc/pic32mx/4.8.3/../../../../pic32mx/lib/fpu64\libc.a(errno.o)
 .debug_str     0x0000147c        0x0 c:/program files (x86)/microchip/xc32/v1.42/bin/bin/../../lib/gcc/pic32mx/4.8.3/../../../../pic32mx/lib/fpu64\libc.a(doprnt_cdnopsuxX.eo)
 .debug_str     0x0000147c        0x0 c:/program files (x86)/microchip/xc32/v1.42/bin/bin/../../lib/gcc/pic32mx/4.8.3/../../../../pic32mx/lib/fpu64\libc.a(_fputc_simple.o)
 .debug_str     0x0000147c        0x0 c:/program files (x86)/microchip/xc32/v1.42/bin/bin/../../lib/gcc/pic32mx/4.8.3/../../../../pic32mx/lib/fpu64\libc.a(_iob.o)
 .debug_str     0x0000147c        0x0 c:/program files (x86)/microchip/xc32/v1.42/bin/bin/../../lib/gcc/pic32mx/4.8.3/../../../../pic32mx/lib/fpu64\libc.a(_flsbuf_simple.o)
 .debug_str     0x0000147c        0x0 c:/program files (x86)/microchip/xc32/v1.42/bin/bin/../../lib/gcc/pic32mx/4.8.3/../../../../pic32mx/lib/fpu64\libpic32.a(sbrk.o)
 .debug_str     0x0000147c        0x0 c:/program files (x86)/microchip/xc32/v1.42/bin/bin/../../lib/gcc/pic32mx/4.8.3/../../../../pic32mx/lib/fpu64\libpic32.a(write.o)
 .debug_str     0x0000147c        0x0 c:/program files (x86)/microchip/xc32/v1.42/bin/bin/../../lib/gcc/pic32mx/4.8.3/../../../../pic32mx/lib/fpu64\libpic32.a(_mon_putc.o)
 .debug_str     0x0000147c        0x0 c:/program files (x86)/microchip/xc32/v1.42/bin/bin/../../lib/gcc/pic32mx/4.8.3/../../../../pic32mx/lib/fpu64\libpic32.a(xc32_uart.o)
 .debug_str     0x0000147c        0x0 c:/program files (x86)/microchip/xc32/v1.42/bin/bin/../../lib/gcc/pic32mx/4.8.3/fpu64\libgcc.a(_umoddi3.o)

.debug_loc      0x00000000    0x1cd0f
 *(.debug_loc)
 .debug_loc     0x00000000      0x413 build/udp_pic32mz_ef_sk/production/_ext/938613576/bsp.o
 .debug_loc     0x00000413       0xd7 build/udp_pic32mz_ef_sk/production/_ext/1991045727/sys_clk_pic32mz.o
 .debug_loc     0x000004ea       0xf0 build/udp_pic32mz_ef_sk/production/_ext/2092611130/sys_devcon.o
 .debug_loc     0x000005da      0x3fd build/udp_pic32mz_ef_sk/production/_ext/2092611130/sys_devcon_pic32mz.o
 .debug_loc     0x000009d7      0x9ca build/udp_pic32mz_ef_sk/production/_ext/641914703/sys_ports_static.o
 .debug_loc     0x000013a1       0x42 build/udp_pic32mz_ef_sk/production/_ext/1532728844/sys_reset.o
 .debug_loc     0x000013e3       0x21 build/udp_pic32mz_ef_sk/production/_ext/2145045400/system_init.o
 .debug_loc     0x00001404       0x7e build/udp_pic32mz_ef_sk/production/_ext/2145045400/system_interrupt.o
 .debug_loc     0x00001482      0x186 build/udp_pic32mz_ef_sk/production/_ext/615392287/datastream.o
 .debug_loc     0x00001608      0x10c build/udp_pic32mz_ef_sk/production/_ext/615392287/datastream_udp.o
 .debug_loc     0x00001714      0x2e7 build/udp_pic32mz_ef_sk/production/_ext/686445382/bootloader.o
 .debug_loc     0x000019fb      0x374 build/udp_pic32mz_ef_sk/production/_ext/686445382/nvm.o
 .debug_loc     0x00001d6f     0x2ee8 build/udp_pic32mz_ef_sk/production/_ext/1697634946/drv_ethmac.o
 .debug_loc     0x00004c57     0x1cd4 build/udp_pic32mz_ef_sk/production/_ext/1697634946/drv_ethmac_lib.o
 .debug_loc     0x0000692b     0x30d8 build/udp_pic32mz_ef_sk/production/_ext/521481140/drv_ethphy.o
 .debug_loc     0x00009a03      0x268 build/udp_pic32mz_ef_sk/production/_ext/521481140/drv_extphy_smsc8740.o
 .debug_loc     0x00009c6b     0x1904 build/udp_pic32mz_ef_sk/production/_ext/941160041/drv_tmr.o
 .debug_loc     0x0000b56f       0x69 build/udp_pic32mz_ef_sk/production/_ext/1042686532/sys_int_pic32.o
 .debug_loc     0x0000b5d8       0x90 build/udp_pic32mz_ef_sk/production/_ext/470001640/sys_random.o
 .debug_loc     0x0000b668      0xe4f build/udp_pic32mz_ef_sk/production/_ext/2110151058/sys_tmr.o
 .debug_loc     0x0000c4b7      0x2f4 build/udp_pic32mz_ef_sk/production/_ext/1886247299/helpers.o
 .debug_loc     0x0000c7ab     0x17e6 build/udp_pic32mz_ef_sk/production/_ext/1164207549/ipv4.o
 .debug_loc     0x0000df91     0x3362 build/udp_pic32mz_ef_sk/production/_ext/1164207549/udp.o
 .debug_loc     0x000112f3      0x299 build/udp_pic32mz_ef_sk/production/_ext/1164207549/tcpip_heap_alloc.o
 .debug_loc     0x0001158c      0xb41 build/udp_pic32mz_ef_sk/production/_ext/1164207549/tcpip_heap_internal.o
 .debug_loc     0x000120cd     0x1eb1 build/udp_pic32mz_ef_sk/production/_ext/1164207549/arp.o
 .debug_loc     0x00013f7e      0x137 build/udp_pic32mz_ef_sk/production/_ext/1164207549/hash_fnv.o
 .debug_loc     0x000140b5      0x2b1 build/udp_pic32mz_ef_sk/production/_ext/1164207549/oahash.o
 .debug_loc     0x00014366     0x35fd build/udp_pic32mz_ef_sk/production/_ext/1164207549/tcpip_helpers.o
 .debug_loc     0x00017963     0x335e build/udp_pic32mz_ef_sk/production/_ext/1164207549/tcpip_manager.o
 .debug_loc     0x0001acc1      0x27a build/udp_pic32mz_ef_sk/production/_ext/1164207549/tcpip_notify.o
 .debug_loc     0x0001af3b      0x92d build/udp_pic32mz_ef_sk/production/_ext/1164207549/tcpip_packet.o
 .debug_loc     0x0001b868      0xa6a c:/program files (x86)/microchip/xc32/v1.42/bin/bin/../../lib/gcc/pic32mx/4.8.3/fpu64\libgcc.a(_udivdi3.o)
 .debug_loc     0x0001c2d2      0xa3d c:/program files (x86)/microchip/xc32/v1.42/bin/bin/../../lib/gcc/pic32mx/4.8.3/fpu64\libgcc.a(_umoddi3.o)

.debug_macinfo
 *(.debug_macinfo)

.debug_weaknames
 *(.debug_weaknames)

.debug_funcnames
 *(.debug_funcnames)

.debug_typenames
 *(.debug_typenames)

.debug_varnames
 *(.debug_varnames)

.debug_pubtypes
 *(.debug_pubtypes)

.debug_ranges   0x00000000     0x2af8
 *(.debug_ranges)
 .debug_ranges  0x00000000       0x58 build/udp_pic32mz_ef_sk/production/_ext/938613576/bsp.o
 .debug_ranges  0x00000058       0x40 build/udp_pic32mz_ef_sk/production/_ext/1991045727/sys_clk_pic32mz.o
 .debug_ranges  0x00000098       0x68 build/udp_pic32mz_ef_sk/production/_ext/2092611130/sys_devcon.o
 .debug_ranges  0x00000100       0xd8 build/udp_pic32mz_ef_sk/production/_ext/2092611130/sys_devcon_pic32mz.o
 .debug_ranges  0x000001d8      0x138 build/udp_pic32mz_ef_sk/production/_ext/641914703/sys_ports_static.o
 .debug_ranges  0x00000310       0x28 build/udp_pic32mz_ef_sk/production/_ext/1532728844/sys_reset.o
 .debug_ranges  0x00000338       0x18 build/udp_pic32mz_ef_sk/production/_ext/2145045400/system_init.o
 .debug_ranges  0x00000350       0x20 build/udp_pic32mz_ef_sk/production/_ext/2145045400/system_interrupt.o
 .debug_ranges  0x00000370       0x10 build/udp_pic32mz_ef_sk/production/_ext/2145045400/system_exceptions.o
 .debug_ranges  0x00000380       0x10 build/udp_pic32mz_ef_sk/production/_ext/2145045400/system_tasks.o
 .debug_ranges  0x00000390       0x10 build/udp_pic32mz_ef_sk/production/_ext/1360937237/main.o
 .debug_ranges  0x000003a0       0x20 build/udp_pic32mz_ef_sk/production/_ext/1360937237/app.o
 .debug_ranges  0x000003c0       0x48 build/udp_pic32mz_ef_sk/production/_ext/615392287/datastream.o
 .debug_ranges  0x00000408       0x28 build/udp_pic32mz_ef_sk/production/_ext/615392287/datastream_udp.o
 .debug_ranges  0x00000430       0x50 build/udp_pic32mz_ef_sk/production/_ext/686445382/bootloader.o
 .debug_ranges  0x00000480       0x60 build/udp_pic32mz_ef_sk/production/_ext/686445382/nvm.o
 .debug_ranges  0x000004e0      0x268 build/udp_pic32mz_ef_sk/production/_ext/1697634946/drv_ethmac.o
 .debug_ranges  0x00000748      0x3d8 build/udp_pic32mz_ef_sk/production/_ext/1697634946/drv_ethmac_lib.o
 .debug_ranges  0x00000b20      0x280 build/udp_pic32mz_ef_sk/production/_ext/521481140/drv_ethphy.o
 .debug_ranges  0x00000da0       0x20 build/udp_pic32mz_ef_sk/production/_ext/521481140/drv_extphy_smsc8740.o
 .debug_ranges  0x00000dc0      0x258 build/udp_pic32mz_ef_sk/production/_ext/941160041/drv_tmr.o
 .debug_ranges  0x00001018       0x50 build/udp_pic32mz_ef_sk/production/_ext/1042686532/sys_int_pic32.o
 .debug_ranges  0x00001068       0x28 build/udp_pic32mz_ef_sk/production/_ext/470001640/sys_random.o
 .debug_ranges  0x00001090      0x148 build/udp_pic32mz_ef_sk/production/_ext/2110151058/sys_tmr.o
 .debug_ranges  0x000011d8       0x30 build/udp_pic32mz_ef_sk/production/_ext/1886247299/helpers.o
 .debug_ranges  0x00001208      0x1b0 build/udp_pic32mz_ef_sk/production/_ext/1164207549/ipv4.o
 .debug_ranges  0x000013b8      0x530 build/udp_pic32mz_ef_sk/production/_ext/1164207549/udp.o
 .debug_ranges  0x000018e8       0x38 build/udp_pic32mz_ef_sk/production/_ext/1164207549/tcpip_heap_alloc.o
 .debug_ranges  0x00001920       0x98 build/udp_pic32mz_ef_sk/production/_ext/1164207549/tcpip_heap_internal.o
 .debug_ranges  0x000019b8      0x1c0 build/udp_pic32mz_ef_sk/production/_ext/1164207549/arp.o
 .debug_ranges  0x00001b78       0x40 build/udp_pic32mz_ef_sk/production/_ext/1164207549/dhcp.o
 .debug_ranges  0x00001bb8       0x58 build/udp_pic32mz_ef_sk/production/_ext/1164207549/dns.o
 .debug_ranges  0x00001c10       0x18 build/udp_pic32mz_ef_sk/production/_ext/1164207549/hash_fnv.o
 .debug_ranges  0x00001c28       0x58 build/udp_pic32mz_ef_sk/production/_ext/1164207549/oahash.o
 .debug_ranges  0x00001c80      0x418 build/udp_pic32mz_ef_sk/production/_ext/1164207549/tcpip_helpers.o
 .debug_ranges  0x00002098      0x638 build/udp_pic32mz_ef_sk/production/_ext/1164207549/tcpip_manager.o
 .debug_ranges  0x000026d0       0x30 build/udp_pic32mz_ef_sk/production/_ext/1164207549/tcpip_notify.o
 .debug_ranges  0x00002700       0x68 build/udp_pic32mz_ef_sk/production/_ext/1164207549/tcpip_packet.o
 .debug_ranges  0x00002768       0x98 c:/program files (x86)/microchip/xc32/v1.42/bin/bin/../../lib/gcc/pic32mx/4.8.3/fpu64\libgcc.a(_udivdi3.o)
 .debug_ranges  0x00002800       0x10 c:/program files (x86)/microchip/xc32/v1.42/bin/bin/../../lib/gcc/pic32mx/4.8.3/../../../../pic32mx/lib/fpu64\libpic32.a(default-bootstrap-exception-handler.o)
 .debug_ranges  0x00002810       0x10 c:/program files (x86)/microchip/xc32/v1.42/bin/bin/../../lib/gcc/pic32mx/4.8.3/../../../../pic32mx/lib/fpu64\libpic32.a(default-on-reset.o)
 .debug_ranges  0x00002820       0x10 c:/program files (x86)/microchip/xc32/v1.42/bin/bin/../../lib/gcc/pic32mx/4.8.3/../../../../pic32mx/lib/fpu64\libpic32.a(default-on-bootstrap.o)
 .debug_ranges  0x00002830       0x10 c:/program files (x86)/microchip/xc32/v1.42/bin/bin/../../lib/gcc/pic32mx/4.8.3/../../../../pic32mx/lib/fpu64\libpic32.a(defaultinterrupt.o)
 .debug_ranges  0x00002840       0x10 c:/program files (x86)/microchip/xc32/v1.42/bin/bin/../../lib/gcc/pic32mx/4.8.3/../../../../pic32mx/lib/fpu64\libpic32.a(default-cache-err-exception-handler.o)
 .debug_ranges  0x00002850       0x10 c:/program files (x86)/microchip/xc32/v1.42/bin/bin/../../lib/gcc/pic32mx/4.8.3/../../../../pic32mx/lib/fpu64\libpic32.a(default-simple-tlb-refill-exception-handler.o)
 .debug_ranges  0x00002860       0x10 c:/program files (x86)/microchip/xc32/v1.42/bin/bin/../../lib/gcc/pic32mx/4.8.3/../../../../pic32mx/lib/fpu64\libc.a(atoi.o)
 .debug_ranges  0x00002870       0x10 c:/program files (x86)/microchip/xc32/v1.42/bin/bin/../../lib/gcc/pic32mx/4.8.3/../../../../pic32mx/lib/fpu64\libc.a(calloc.o)
 .debug_ranges  0x00002880       0x90 c:/program files (x86)/microchip/xc32/v1.42/bin/bin/../../lib/gcc/pic32mx/4.8.3/../../../../pic32mx/lib/fpu64\libc.a(ctypef.o)
 .debug_ranges  0x00002910       0x20 c:/program files (x86)/microchip/xc32/v1.42/bin/bin/../../lib/gcc/pic32mx/4.8.3/../../../../pic32mx/lib/fpu64\libc.a(malloc.o)
 .debug_ranges  0x00002930       0x18 c:/program files (x86)/microchip/xc32/v1.42/bin/bin/../../lib/gcc/pic32mx/4.8.3/../../../../pic32mx/lib/fpu64\libc.a(rand.o)
 .debug_ranges  0x00002948       0x10 c:/program files (x86)/microchip/xc32/v1.42/bin/bin/../../lib/gcc/pic32mx/4.8.3/../../../../pic32mx/lib/fpu64\libc.a(strncpy.o)
 .debug_ranges  0x00002958       0x18 c:/program files (x86)/microchip/xc32/v1.42/bin/bin/../../lib/gcc/pic32mx/4.8.3/../../../../pic32mx/lib/fpu64\libc.a(strtol.o)
 .debug_ranges  0x00002970       0x10 c:/program files (x86)/microchip/xc32/v1.42/bin/bin/../../lib/gcc/pic32mx/4.8.3/../../../../pic32mx/lib/fpu64\libc.a(snprintf_cdnopsuxX.eo)
 .debug_ranges  0x00002980       0x10 c:/program files (x86)/microchip/xc32/v1.42/bin/bin/../../lib/gcc/pic32mx/4.8.3/../../../../pic32mx/lib/fpu64\libc.a(sprintf_cdnopuxX.eo)
 .debug_ranges  0x00002990       0x10 c:/program files (x86)/microchip/xc32/v1.42/bin/bin/../../lib/gcc/pic32mx/4.8.3/../../../../pic32mx/lib/fpu64\libc.a(vsnprintf_cdnopsuxX.eo)
 .debug_ranges  0x000029a0       0x10 c:/program files (x86)/microchip/xc32/v1.42/bin/bin/../../lib/gcc/pic32mx/4.8.3/../../../../pic32mx/lib/fpu64\libc.a(doprnt_cdnopsuxX.eo)
 .debug_ranges  0x000029b0       0x10 c:/program files (x86)/microchip/xc32/v1.42/bin/bin/../../lib/gcc/pic32mx/4.8.3/../../../../pic32mx/lib/fpu64\libc.a(_fputc_simple.o)
 .debug_ranges  0x000029c0       0x10 c:/program files (x86)/microchip/xc32/v1.42/bin/bin/../../lib/gcc/pic32mx/4.8.3/../../../../pic32mx/lib/fpu64\libc.a(_flsbuf_simple.o)
 .debug_ranges  0x000029d0       0x30 c:/program files (x86)/microchip/xc32/v1.42/bin/bin/../../lib/gcc/pic32mx/4.8.3/../../../../pic32mx/lib/fpu64\libpic32.a(sbrk.o)
 .debug_ranges  0x00002a00       0x10 c:/program files (x86)/microchip/xc32/v1.42/bin/bin/../../lib/gcc/pic32mx/4.8.3/../../../../pic32mx/lib/fpu64\libpic32.a(write.o)
 .debug_ranges  0x00002a10       0x10 c:/program files (x86)/microchip/xc32/v1.42/bin/bin/../../lib/gcc/pic32mx/4.8.3/../../../../pic32mx/lib/fpu64\libpic32.a(_mon_putc.o)
 .debug_ranges  0x00002a20       0xd8 c:/program files (x86)/microchip/xc32/v1.42/bin/bin/../../lib/gcc/pic32mx/4.8.3/fpu64\libgcc.a(_umoddi3.o)

.gnu.attributes
                0x00000000       0x10
 *(.gnu.attributes)
 .gnu.attributes
                0x00000000       0x10 build/udp_pic32mz_ef_sk/production/_ext/938613576/bsp.o
 .gnu.attributes
                0x00000010       0x10 build/udp_pic32mz_ef_sk/production/_ext/1991045727/sys_clk_pic32mz.o
 .gnu.attributes
                0x00000020       0x10 build/udp_pic32mz_ef_sk/production/_ext/2092611130/sys_devcon.o
 .gnu.attributes
                0x00000030       0x10 build/udp_pic32mz_ef_sk/production/_ext/2092611130/sys_devcon_pic32mz.o
 .gnu.attributes
                0x00000040       0x10 build/udp_pic32mz_ef_sk/production/_ext/1633430821/sys_memory_smc_static.o
 .gnu.attributes
                0x00000050       0x10 build/udp_pic32mz_ef_sk/production/_ext/641914703/sys_ports_static.o
 .gnu.attributes
                0x00000060       0x10 build/udp_pic32mz_ef_sk/production/_ext/1532728844/sys_reset.o
 .gnu.attributes
                0x00000070       0x10 build/udp_pic32mz_ef_sk/production/_ext/2145045400/system_init.o
 .gnu.attributes
                0x00000080       0x10 build/udp_pic32mz_ef_sk/production/_ext/2145045400/system_interrupt.o
 .gnu.attributes
                0x00000090       0x10 build/udp_pic32mz_ef_sk/production/_ext/2145045400/system_exceptions.o
 .gnu.attributes
                0x000000a0       0x10 build/udp_pic32mz_ef_sk/production/_ext/2145045400/system_tasks.o
 .gnu.attributes
                0x000000b0       0x10 build/udp_pic32mz_ef_sk/production/_ext/1360937237/main.o
 .gnu.attributes
                0x000000c0       0x10 build/udp_pic32mz_ef_sk/production/_ext/1360937237/app.o
 .gnu.attributes
                0x000000d0       0x10 build/udp_pic32mz_ef_sk/production/_ext/615392287/datastream.o
 .gnu.attributes
                0x000000e0       0x10 build/udp_pic32mz_ef_sk/production/_ext/615392287/datastream_udp.o
 .gnu.attributes
                0x000000f0       0x10 build/udp_pic32mz_ef_sk/production/_ext/686445382/bootloader.o
 .gnu.attributes
                0x00000100       0x10 build/udp_pic32mz_ef_sk/production/_ext/686445382/nvm.o
 .gnu.attributes
                0x00000110       0x10 build/udp_pic32mz_ef_sk/production/_ext/1697634946/drv_ethmac.o
 .gnu.attributes
                0x00000120       0x10 build/udp_pic32mz_ef_sk/production/_ext/1697634946/drv_ethmac_lib.o
 .gnu.attributes
                0x00000130       0x10 build/udp_pic32mz_ef_sk/production/_ext/521481140/drv_ethphy.o
 .gnu.attributes
                0x00000140       0x10 build/udp_pic32mz_ef_sk/production/_ext/521481140/drv_extphy_smsc8740.o
 .gnu.attributes
                0x00000150       0x10 build/udp_pic32mz_ef_sk/production/_ext/941160041/drv_tmr.o
 .gnu.attributes
                0x00000160       0x10 build/udp_pic32mz_ef_sk/production/_ext/1042686532/sys_int_pic32.o
 .gnu.attributes
                0x00000170       0x10 build/udp_pic32mz_ef_sk/production/_ext/470001640/sys_random.o
 .gnu.attributes
                0x00000180       0x10 build/udp_pic32mz_ef_sk/production/_ext/2110151058/sys_tmr.o
 .gnu.attributes
                0x00000190       0x10 build/udp_pic32mz_ef_sk/production/_ext/1886247299/helpers.o
 .gnu.attributes
                0x000001a0       0x10 build/udp_pic32mz_ef_sk/production/_ext/1164207549/ipv4.o
 .gnu.attributes
                0x000001b0       0x10 build/udp_pic32mz_ef_sk/production/_ext/1164207549/udp.o
 .gnu.attributes
                0x000001c0       0x10 build/udp_pic32mz_ef_sk/production/_ext/1164207549/tcpip_heap_alloc.o
 .gnu.attributes
                0x000001d0       0x10 build/udp_pic32mz_ef_sk/production/_ext/1164207549/tcpip_heap_internal.o
 .gnu.attributes
                0x000001e0       0x10 build/udp_pic32mz_ef_sk/production/_ext/1164207549/arp.o
 .gnu.attributes
                0x000001f0       0x10 build/udp_pic32mz_ef_sk/production/_ext/1164207549/dhcp.o
 .gnu.attributes
                0x00000200       0x10 build/udp_pic32mz_ef_sk/production/_ext/1164207549/dns.o
 .gnu.attributes
                0x00000210       0x10 build/udp_pic32mz_ef_sk/production/_ext/1164207549/hash_fnv.o
 .gnu.attributes
                0x00000220       0x10 build/udp_pic32mz_ef_sk/production/_ext/1164207549/oahash.o
 .gnu.attributes
                0x00000230       0x10 build/udp_pic32mz_ef_sk/production/_ext/1164207549/tcpip_helpers.o
 .gnu.attributes
                0x00000240       0x10 build/udp_pic32mz_ef_sk/production/_ext/1164207549/tcpip_manager.o
 .gnu.attributes
                0x00000250       0x10 build/udp_pic32mz_ef_sk/production/_ext/1164207549/tcpip_notify.o
 .gnu.attributes
                0x00000260       0x10 build/udp_pic32mz_ef_sk/production/_ext/1164207549/tcpip_packet.o
 .gnu.attributes
                0x00000270       0x10 c:/program files (x86)/microchip/xc32/v1.42/bin/bin/../../lib/gcc/pic32mx/4.8.3/fpu64\libgcc.a(_udivdi3.o)
 .gnu.attributes
                0x00000280       0x10 c:/program files (x86)/microchip/xc32/v1.42/bin/bin/../../lib/gcc/pic32mx/4.8.3/../../../../pic32mx/lib/fpu64\libpic32.a(default-bootstrap-exception-handler.o)
 .gnu.attributes
                0x00000290       0x10 c:/program files (x86)/microchip/xc32/v1.42/bin/bin/../../lib/gcc/pic32mx/4.8.3/../../../../pic32mx/lib/fpu64\libpic32.a(default-on-reset.o)
 .gnu.attributes
                0x000002a0       0x10 c:/program files (x86)/microchip/xc32/v1.42/bin/bin/../../lib/gcc/pic32mx/4.8.3/../../../../pic32mx/lib/fpu64\libpic32.a(default-on-bootstrap.o)
 .gnu.attributes
                0x000002b0       0x10 c:/program files (x86)/microchip/xc32/v1.42/bin/bin/../../lib/gcc/pic32mx/4.8.3/../../../../pic32mx/lib/fpu64\libpic32.a(defaultinterrupt.o)
 .gnu.attributes
                0x000002c0       0x10 c:/program files (x86)/microchip/xc32/v1.42/bin/bin/../../lib/gcc/pic32mx/4.8.3/../../../../pic32mx/lib/fpu64\libpic32.a(default-cache-err-exception-handler.o)
 .gnu.attributes
                0x000002d0       0x10 c:/program files (x86)/microchip/xc32/v1.42/bin/bin/../../lib/gcc/pic32mx/4.8.3/../../../../pic32mx/lib/fpu64\libpic32.a(default-simple-tlb-refill-exception-handler.o)
 .gnu.attributes
                0x000002e0       0x10 c:/program files (x86)/microchip/xc32/v1.42/bin/bin/../../lib/gcc/pic32mx/4.8.3/../../../../pic32mx/lib/fpu64\libc.a(atoi.o)
 .gnu.attributes
                0x000002f0       0x10 c:/program files (x86)/microchip/xc32/v1.42/bin/bin/../../lib/gcc/pic32mx/4.8.3/../../../../pic32mx/lib/fpu64\libc.a(calloc.o)
 .gnu.attributes
                0x00000300       0x10 c:/program files (x86)/microchip/xc32/v1.42/bin/bin/../../lib/gcc/pic32mx/4.8.3/../../../../pic32mx/lib/fpu64\libc.a(ctype.o)
 .gnu.attributes
                0x00000310       0x10 c:/program files (x86)/microchip/xc32/v1.42/bin/bin/../../lib/gcc/pic32mx/4.8.3/../../../../pic32mx/lib/fpu64\libc.a(ctypef.o)
 .gnu.attributes
                0x00000320       0x10 c:/program files (x86)/microchip/xc32/v1.42/bin/bin/../../lib/gcc/pic32mx/4.8.3/../../../../pic32mx/lib/fpu64\libc.a(malloc.o)
 .gnu.attributes
                0x00000330       0x10 c:/program files (x86)/microchip/xc32/v1.42/bin/bin/../../lib/gcc/pic32mx/4.8.3/../../../../pic32mx/lib/fpu64\libc.a(rand.o)
 .gnu.attributes
                0x00000340       0x10 c:/program files (x86)/microchip/xc32/v1.42/bin/bin/../../lib/gcc/pic32mx/4.8.3/../../../../pic32mx/lib/fpu64\libc.a(strncpy.o)
 .gnu.attributes
                0x00000350       0x10 c:/program files (x86)/microchip/xc32/v1.42/bin/bin/../../lib/gcc/pic32mx/4.8.3/../../../../pic32mx/lib/fpu64\libc.a(strtol.o)
 .gnu.attributes
                0x00000360       0x10 c:/program files (x86)/microchip/xc32/v1.42/bin/bin/../../lib/gcc/pic32mx/4.8.3/../../../../pic32mx/lib/fpu64\libc.a(snprintf_cdnopsuxX.eo)
 .gnu.attributes
                0x00000370       0x10 c:/program files (x86)/microchip/xc32/v1.42/bin/bin/../../lib/gcc/pic32mx/4.8.3/../../../../pic32mx/lib/fpu64\libc.a(sprintf_cdnopuxX.eo)
 .gnu.attributes
                0x00000380       0x10 c:/program files (x86)/microchip/xc32/v1.42/bin/bin/../../lib/gcc/pic32mx/4.8.3/../../../../pic32mx/lib/fpu64\libc.a(vsnprintf_cdnopsuxX.eo)
 .gnu.attributes
                0x00000390       0x10 c:/program files (x86)/microchip/xc32/v1.42/bin/bin/../../lib/gcc/pic32mx/4.8.3/../../../../pic32mx/lib/fpu64\libc.a(errno.o)
 .gnu.attributes
                0x000003a0       0x10 c:/program files (x86)/microchip/xc32/v1.42/bin/bin/../../lib/gcc/pic32mx/4.8.3/../../../../pic32mx/lib/fpu64\libc.a(doprnt_cdnopsuxX.eo)
 .gnu.attributes
                0x000003b0       0x10 c:/program files (x86)/microchip/xc32/v1.42/bin/bin/../../lib/gcc/pic32mx/4.8.3/../../../../pic32mx/lib/fpu64\libc.a(_fputc_simple.o)
 .gnu.attributes
                0x000003c0       0x10 c:/program files (x86)/microchip/xc32/v1.42/bin/bin/../../lib/gcc/pic32mx/4.8.3/../../../../pic32mx/lib/fpu64\libc.a(_iob.o)
 .gnu.attributes
                0x000003d0       0x10 c:/program files (x86)/microchip/xc32/v1.42/bin/bin/../../lib/gcc/pic32mx/4.8.3/../../../../pic32mx/lib/fpu64\libc.a(_flsbuf_simple.o)
 .gnu.attributes
                0x000003e0       0x10 c:/program files (x86)/microchip/xc32/v1.42/bin/bin/../../lib/gcc/pic32mx/4.8.3/../../../../pic32mx/lib/fpu64\libpic32.a(sbrk.o)
 .gnu.attributes
                0x000003f0       0x10 c:/program files (x86)/microchip/xc32/v1.42/bin/bin/../../lib/gcc/pic32mx/4.8.3/../../../../pic32mx/lib/fpu64\libpic32.a(write.o)
 .gnu.attributes
                0x00000400       0x10 c:/program files (x86)/microchip/xc32/v1.42/bin/bin/../../lib/gcc/pic32mx/4.8.3/../../../../pic32mx/lib/fpu64\libpic32.a(_mon_putc.o)
 .gnu.attributes
                0x00000410       0x10 c:/program files (x86)/microchip/xc32/v1.42/bin/bin/../../lib/gcc/pic32mx/4.8.3/../../../../pic32mx/lib/fpu64\libpic32.a(xc32_uart.o)
 .gnu.attributes
                0x00000420       0x10 c:/program files (x86)/microchip/xc32/v1.42/bin/bin/../../lib/gcc/pic32mx/4.8.3/fpu64\libgcc.a(_umoddi3.o)
                0x9d000000                PROVIDE (__pic32_init_cache_program_base_addr, 0x9d000000)
                0x80000000                PROVIDE (__pic32_init_cache_data_base_addr, 0x80000000)
                0xd0000000                PROVIDE (__pic32_init_sqi_kseg2_virtual_base_addr, 0xd0000000)
                0x30000000                PROVIDE (__pic32_init_sqi_kseg2_physical_base_addr, 0x30000000)
                0x0000001f                PROVIDE (__pic32_init_sqi_kseg2_entrylo0_bitset, 0x1f)
                0xd0000000                __pic32_tlb_0_entryhi = __pic32_init_sqi_kseg2_virtual_base_addr
                0x00c0001f                __pic32_tlb_0_entrylo0 = ((__pic32_init_sqi_kseg2_physical_base_addr >> 0x6) | __pic32_init_sqi_kseg2_entrylo0_bitset)
                0x00c8001f                __pic32_tlb_0_entrylo1 = (__pic32_tlb_0_entrylo0 | 0x80000)
                0xf0000000                PROVIDE (__pic32_init_sqi_kseg3_virtual_base_addr, 0xf0000000)
                0x30000000                PROVIDE (__pic32_init_sqi_kseg3_physical_base_addr, 0x30000000)
                0x00000017                PROVIDE (__pic32_init_sqi_kseg3_entrylo0_bitset, 0x17)
                0xf0000000                __pic32_tlb_1_entryhi = __pic32_init_sqi_kseg3_virtual_base_addr
                0x00c00017                __pic32_tlb_1_entrylo0 = ((__pic32_init_sqi_kseg3_physical_base_addr >> 0x6) | __pic32_init_sqi_kseg3_entrylo0_bitset)
                0x00c80017                __pic32_tlb_1_entrylo1 = (__pic32_tlb_1_entrylo0 | 0x80000)
                0xc0000000                PROVIDE (__pic32_init_ebi_kseg2_virtual_base_addr, 0xc0000000)
                0x20000000                PROVIDE (__pic32_init_ebi_kseg2_physical_base_addr, 0x20000000)
                0x0000001f                PROVIDE (__pic32_init_ebi_kseg2_entrylo0_bitset, 0x1f)
                0xc0000000                __pic32_tlb_2_entryhi = __pic32_init_ebi_kseg2_virtual_base_addr
                0x0080001f                __pic32_tlb_2_entrylo0 = ((__pic32_init_ebi_kseg2_physical_base_addr >> 0x6) | __pic32_init_ebi_kseg2_entrylo0_bitset)
                0x0088001f                __pic32_tlb_2_entrylo1 = (__pic32_tlb_2_entrylo0 | 0x80000)
                0xe0000000                PROVIDE (__pic32_init_ebi_kseg3_virtual_base_addr, 0xe0000000)
                0x20000000                PROVIDE (__pic32_init_ebi_kseg3_physical_base_addr, 0x20000000)
                0x00000017                PROVIDE (__pic32_init_ebi_kseg3_entrylo0_bitset, 0x17)
                0xe0000000                __pic32_tlb_3_entryhi = __pic32_init_ebi_kseg3_virtual_base_addr
                0x00800017                __pic32_tlb_3_entrylo0 = ((__pic32_init_ebi_kseg3_physical_base_addr >> 0x6) | __pic32_init_ebi_kseg3_entrylo0_bitset)
                0x00880017                __pic32_tlb_3_entrylo1 = (__pic32_tlb_3_entrylo0 | 0x80000)

.tlb_init_values
                0xbfc0064c       0x30
                0xbfc0064c                . = ALIGN (0x4)
                0xbfc0064c                __pic32_tlb_init_values_begin = ABSOLUTE (.)
                0xbfc0064c        0x4 LONG 0xd0000000 __pic32_tlb_0_entryhi
                0xbfc00650        0x4 LONG 0xc0001f __pic32_tlb_0_entrylo0
                0xbfc00654        0x4 LONG 0xc8001f __pic32_tlb_0_entrylo1
                0xbfc00658        0x4 LONG 0xf0000000 __pic32_tlb_1_entryhi
                0xbfc0065c        0x4 LONG 0xc00017 __pic32_tlb_1_entrylo0
                0xbfc00660        0x4 LONG 0xc80017 __pic32_tlb_1_entrylo1
                0xbfc00664        0x4 LONG 0xc0000000 __pic32_tlb_2_entryhi
                0xbfc00668        0x4 LONG 0x80001f __pic32_tlb_2_entrylo0
                0xbfc0066c        0x4 LONG 0x88001f __pic32_tlb_2_entrylo1
                0xbfc00670        0x4 LONG 0xe0000000 __pic32_tlb_3_entryhi
                0xbfc00674        0x4 LONG 0x800017 __pic32_tlb_3_entrylo0
                0xbfc00678        0x4 LONG 0x880017 __pic32_tlb_3_entrylo1
                0xbfc0067c                __pic32_tlb_init_values_end = ABSOLUTE (.)
                0x00000004                __pic32_tlb_init_values_count = 0x4

.fill1          0x9fc14000     0xc000
 FILL mask 0xff
                0x9fc1ffff                . = ((ORIGIN (protected_reg3) + 0xc000) - 0x1)
 *fill*         0x9fc14000     0xbfff ff
                0x9fc1ffff        0x1 BYTE 0xff
                0x0000afa0                _min_heap_size = 0xafa0
LOAD c:/program files (x86)/microchip/xc32/v1.42/bin/bin/../../lib/gcc/pic32mx/4.8.3/../../../../pic32mx/lib/./proc/32MZ2048EFH144\default_isr_vectors.o
LOAD c:/program files (x86)/microchip/xc32/v1.42/bin/bin/../../lib/gcc/pic32mx/4.8.3/../../../../pic32mx/lib/fpu64\pic32_software_reset.o
LOAD c:/program files (x86)/microchip/xc32/v1.42/bin/bin/../../lib/gcc/pic32mx/4.8.3/fpu64\libgcc.a
START GROUP
LOAD c:/program files (x86)/microchip/xc32/v1.42/bin/bin/../../lib/gcc/pic32mx/4.8.3/../../../../pic32mx/lib/fpu64\libpic32.a
LOAD c:/program files (x86)/microchip/xc32/v1.42/bin/bin/../../lib/gcc/pic32mx/4.8.3/../../../../pic32mx/lib/fpu64\libdebug.a
LOAD c:/program files (x86)/microchip/xc32/v1.42/bin/bin/../../lib/gcc/pic32mx/4.8.3/../../../../pic32mx/lib/fpu64\libpic32.a
LOAD c:/program files (x86)/microchip/xc32/v1.42/bin/bin/../../lib/gcc/pic32mx/4.8.3/../../../../pic32mx/lib/fpu64\libmfd.a
LOAD c:/program files (x86)/microchip/xc32/v1.42/bin/bin/../../lib/gcc/pic32mx/4.8.3/../../../../pic32mx/lib/fpu64\libm.a
LOAD c:/program files (x86)/microchip/xc32/v1.42/bin/bin/../../lib/gcc/pic32mx/4.8.3/../../../../pic32mx/lib/fpu64\libe.a
LOAD c:/program files (x86)/microchip/xc32/v1.42/bin/bin/../../lib/gcc/pic32mx/4.8.3/../../../../pic32mx/lib/fpu64\libdspr2.a
LOAD c:/program files (x86)/microchip/xc32/v1.42/bin/bin/../../lib/gcc/pic32mx/4.8.3/../../../../pic32mx/lib/fpu64\libdsp.a
LOAD c:/program files (x86)/microchip/xc32/v1.42/bin/bin/../../lib/gcc/pic32mx/4.8.3/fpu64\libgcc.a
LOAD c:/program files (x86)/microchip/xc32/v1.42/bin/bin/../../lib/gcc/pic32mx/4.8.3/../../../../pic32mx/lib/fpu64\libc.a
LOAD c:/program files (x86)/microchip/xc32/v1.42/bin/bin/../../lib/gcc/pic32mx/4.8.3/../../../../pic32mx/lib/fpu64\libc.a
LOAD c:/program files (x86)/microchip/xc32/v1.42/bin/bin/../../lib/gcc/pic32mx/4.8.3/../../../../pic32mx/lib/fpu64\libpic32.a
END GROUP
LOAD c:/program files (x86)/microchip/xc32/v1.42/bin/bin/../../lib/gcc/pic32mx/4.8.3/fpu64\libgcc.a
OUTPUT(dist/udp_pic32mz_ef_sk/production/basic.X.production.elf elf32-tradlittlemips)
LOAD stack
LOAD data_init

.reginfo        0x00000000       0x18
 .reginfo       0x00000000       0x18 c:/program files (x86)/microchip/xc32/v1.42/bin/bin/../../lib/gcc/pic32mx/4.8.3/../../../../pic32mx/lib/./proc/32MZ2048EFH144/crt0_mips32r2.o

.stack          0x8000bc08       0x10
 .stack         0x8000bc08       0x10 stack

.__vector_offset_BF810540_data
                0xbf810540      0x1ac
 .__vector_offset_BF810540_data
                0xbf810540      0x1ac c:/program files (x86)/microchip/xc32/v1.42/bin/bin/../../lib/gcc/pic32mx/4.8.3/../../../../pic32mx/lib/./proc/32MZ2048EFH144\vector_offset_init.o

.__vector_offset_BF8106F4_data
                0xbf8106f4      0x148
 .__vector_offset_BF8106F4_data
                0xbf8106f4      0x148 c:/program files (x86)/microchip/xc32/v1.42/bin/bin/../../lib/gcc/pic32mx/4.8.3/../../../../pic32mx/lib/./proc/32MZ2048EFH144\vector_offset_init.o

.__vector_offset_BF810874_data
                0xbf810874       0x18
 .__vector_offset_BF810874_data
                0xbf810874       0x18 c:/program files (x86)/microchip/xc32/v1.42/bin/bin/../../lib/gcc/pic32mx/4.8.3/../../../../pic32mx/lib/./proc/32MZ2048EFH144\vector_offset_init.o

.__vector_offset_BF810858_data
                0xbf810858       0x14
 .__vector_offset_BF810858_data
                0xbf810858       0x14 c:/program files (x86)/microchip/xc32/v1.42/bin/bin/../../lib/gcc/pic32mx/4.8.3/../../../../pic32mx/lib/./proc/32MZ2048EFH144\vector_offset_init.o

.__vector_offset_BF810840_data
                0xbf810840        0xc
 .__vector_offset_BF810840_data
                0xbf810840        0xc c:/program files (x86)/microchip/xc32/v1.42/bin/bin/../../lib/gcc/pic32mx/4.8.3/../../../../pic32mx/lib/./proc/32MZ2048EFH144\vector_offset_init.o

.__vector_offset_BF810850_data
                0xbf810850        0x4
 .__vector_offset_BF810850_data
                0xbf810850        0x4 c:/program files (x86)/microchip/xc32/v1.42/bin/bin/../../lib/gcc/pic32mx/4.8.3/../../../../pic32mx/lib/./proc/32MZ2048EFH144\vector_offset_init.o

.__vector_offset_BF810894_data
                0xbf810894        0x4
 .__vector_offset_BF810894_data
                0xbf810894        0x4 c:/program files (x86)/microchip/xc32/v1.42/bin/bin/../../lib/gcc/pic32mx/4.8.3/../../../../pic32mx/lib/./proc/32MZ2048EFH144\vector_offset_init.o

.bss.data_buff.data_buff
                0xa0000120      0x400
 .bss.data_buff.data_buff
                0xa0000120      0x400 build/udp_pic32mz_ef_sk/production/_ext/686445382/bootloader.o
                0xa0000120                data_buff

.bss            0x80000520      0x31c
 .bss           0x80000520      0x31c build/udp_pic32mz_ef_sk/production/_ext/1164207549/tcpip_manager.o

.data           0x80000840      0x140
 .data          0x80000840      0x140 build/udp_pic32mz_ef_sk/production/_ext/1697634946/drv_ethmac.o

.bss            0x80000980       0xec
 .bss           0x80000980       0x90 build/udp_pic32mz_ef_sk/production/_ext/2110151058/sys_tmr.o
 .bss           0x80000a10       0x5c build/udp_pic32mz_ef_sk/production/_ext/521481140/drv_ethphy.o

.bss.bootloaderData.bootloaderData
                0xa0000a70       0x50
 .bss.bootloaderData.bootloaderData
                0xa0000a70       0x50 build/udp_pic32mz_ef_sk/production/_ext/686445382/bootloader.o
                0xa0000a70                bootloaderData

.bss            0x80000ac0      0x128
 .bss           0x80000ac0       0x44 build/udp_pic32mz_ef_sk/production/_ext/1164207549/arp.o
 .bss           0x80000b04       0x44 c:/program files (x86)/microchip/xc32/v1.42/bin/bin/../../lib/gcc/pic32mx/4.8.3/../../../../pic32mx/lib/fpu64\libc.a(_iob.o)
                0x80000b04                _sobuf
                0x80000b24                _sibuf
                0x80000b44                _outdone
 .bss           0x80000b48       0x3c build/udp_pic32mz_ef_sk/production/_ext/941160041/drv_tmr.o
 .bss           0x80000b84       0x24 c:/program files (x86)/microchip/xc32/v1.42/bin/bin/../../lib/gcc/pic32mx/4.8.3/../../../../pic32mx/lib/fpu64\libpic32.a(sbrk.o)
                0x80000ba0                _maxbrk
                0x80000ba4                _minbrk
 .bss           0x80000ba8       0x20 build/udp_pic32mz_ef_sk/production/_ext/1164207549/ipv4.o
 .bss           0x80000bc8       0x20 c:/program files (x86)/microchip/xc32/v1.42/bin/bin/../../lib/gcc/pic32mx/4.8.3/../../../../pic32mx/lib/fpu64\libc.a(malloc.o)
                0x80000bc8                __allocx
                0x80000bd0                __alloct
                0x80000bd4                __allocp
                0x80000bd8                __allocs

.data           0x80000be8       0x1c
 .data          0x80000be8       0x1c build/udp_pic32mz_ef_sk/production/_ext/2145045400/system_init.o
                0x80000be8                tcpipHeapConfig

.bss            0x80000c04       0x44
 .bss           0x80000c04       0x1c build/udp_pic32mz_ef_sk/production/_ext/686445382/nvm.o
 .bss           0x80000c20       0x18 build/udp_pic32mz_ef_sk/production/_ext/470001640/sys_random.o
 .bss           0x80000c38       0x10 c:/program files (x86)/microchip/xc32/v1.42/bin/bin/../../lib/gcc/pic32mx/4.8.3/../../../../pic32mx/lib/fpu64\libc.a(rand.o)

.bss.errno      0x8000011c        0x4
 .bss.errno     0x8000011c        0x4 c:/program files (x86)/microchip/xc32/v1.42/bin/bin/../../lib/gcc/pic32mx/4.8.3/../../../../pic32mx/lib/fpu64\libc.a(errno.o)
                0x8000011c                errno

.text._vfprintf_cdnopsuxX
                0x9fc20000      0xad4
 .text._vfprintf_cdnopsuxX
                0x9fc20000      0xad4 c:/program files (x86)/microchip/xc32/v1.42/bin/bin/../../lib/gcc/pic32mx/4.8.3/../../../../pic32mx/lib/fpu64\libc.a(doprnt_cdnopsuxX.eo)
                0x9fc20000                _vfprintf_cdnopsuxX
                0x9fc20000                _vfprintf_cdnopuxX

.text.TCPIP_STACK_Task
                0x9fc20ad4      0x82c
 .text.TCPIP_STACK_Task
                0x9fc20ad4      0x82c build/udp_pic32mz_ef_sk/production/_ext/1164207549/tcpip_manager.o
                0x9fc20ad4                TCPIP_STACK_Task

.text.DRV_ETHMAC_PIC32MACInitialize
                0x9fc21300      0x778
 .text.DRV_ETHMAC_PIC32MACInitialize
                0x9fc21300      0x778 build/udp_pic32mz_ef_sk/production/_ext/1697634946/drv_ethmac.o
                0x9fc21300                DRV_ETHMAC_PIC32MACInitialize

.dinit          0x9fc21a78      0x6b0
 .dinit         0x9fc21a78      0x6b0 data_init

.text.TCPIP_ARP_Task
                0x9fc22128      0x480
 .text.TCPIP_ARP_Task
                0x9fc22128      0x480 build/udp_pic32mz_ef_sk/production/_ext/1164207549/arp.o
                0x9fc22128                TCPIP_ARP_Task

.text           0x9fc225a8      0x8bc
 .text          0x9fc225a8      0x464 c:/program files (x86)/microchip/xc32/v1.42/bin/bin/../../lib/gcc/pic32mx/4.8.3/fpu64\libgcc.a(_umoddi3.o)
                0x9fc225a8                __umoddi3
 .text          0x9fc22a0c      0x458 c:/program files (x86)/microchip/xc32/v1.42/bin/bin/../../lib/gcc/pic32mx/4.8.3/fpu64\libgcc.a(_udivdi3.o)
                0x9fc22a0c                __udivdi3

.text.TCPIP_STACK_Initialize
                0x9fc22e64      0x420
 .text.TCPIP_STACK_Initialize
                0x9fc22e64      0x420 build/udp_pic32mz_ef_sk/production/_ext/1164207549/tcpip_manager.o
                0x9fc22e64                TCPIP_STACK_Initialize

.text.Bootloader_Tasks
                0x9fc23284      0x418
 .text.Bootloader_Tasks
                0x9fc23284      0x418 build/udp_pic32mz_ef_sk/production/_ext/686445382/bootloader.o
                0x9fc23284                Bootloader_Tasks

.text.TCPIP_ARP_Initialize
                0x9fc2369c      0x374
 .text.TCPIP_ARP_Initialize
                0x9fc2369c      0x374 build/udp_pic32mz_ef_sk/production/_ext/1164207549/arp.o
                0x9fc2369c                TCPIP_ARP_Initialize

.text.APP_ProgramHexRecord
                0x9fc23a10      0x34c
 .text.APP_ProgramHexRecord
                0x9fc23a10      0x34c build/udp_pic32mz_ef_sk/production/_ext/686445382/nvm.o
                0x9fc23a10                APP_ProgramHexRecord

.text.TCPIP_UDP_Task
                0x9fc23d5c      0x328
 .text.TCPIP_UDP_Task
                0x9fc23d5c      0x328 build/udp_pic32mz_ef_sk/production/_ext/1164207549/udp.o
                0x9fc23d5c                TCPIP_UDP_Task

.text.TCPIP_UDP_Flush
                0x9fc24084      0x318
 .text.TCPIP_UDP_Flush
                0x9fc24084      0x318 build/udp_pic32mz_ef_sk/production/_ext/1164207549/udp.o
                0x9fc24084                TCPIP_UDP_Flush

.text.SYS_TMR_Tasks
                0x9fc2439c      0x308
 .text.SYS_TMR_Tasks
                0x9fc2439c      0x308 build/udp_pic32mz_ef_sk/production/_ext/2110151058/sys_tmr.o
                0x9fc2439c                SYS_TMR_Tasks

.text.TCPIP_STACK_BringNetUp
                0x9fc246a4      0x2f0
 .text.TCPIP_STACK_BringNetUp
                0x9fc246a4      0x2f0 build/udp_pic32mz_ef_sk/production/_ext/1164207549/tcpip_manager.o

.text.TCPIP_IPV4_PacketTransmit
                0x9fc24994      0x2d0
 .text.TCPIP_IPV4_PacketTransmit
                0x9fc24994      0x2d0 build/udp_pic32mz_ef_sk/production/_ext/1164207549/ipv4.o
                0x9fc24994                TCPIP_IPV4_PacketTransmit

.text.TCPIP_IPV4_Task
                0x9fc24c64      0x2a0
 .text.TCPIP_IPV4_Task
                0x9fc24c64      0x2a0 build/udp_pic32mz_ef_sk/production/_ext/1164207549/ipv4.o
                0x9fc24c64                TCPIP_IPV4_Task

.text.DRV_ETHMAC_PIC32MACParametersGet
                0x9fc24f04      0x288
 .text.DRV_ETHMAC_PIC32MACParametersGet
                0x9fc24f04      0x288 build/udp_pic32mz_ef_sk/production/_ext/1697634946/drv_ethmac.o
                0x9fc24f04                DRV_ETHMAC_PIC32MACParametersGet

.text.malloc    0x9fc2518c      0x288
 .text.malloc   0x9fc2518c      0x288 c:/program files (x86)/microchip/xc32/v1.42/bin/bin/../../lib/gcc/pic32mx/4.8.3/../../../../pic32mx/lib/fpu64\libc.a(malloc.o)
                0x9fc2518c                malloc

.text.TCPIP_IPV4_PacketFormatTx
                0x9fc25414      0x25c
 .text.TCPIP_IPV4_PacketFormatTx
                0x9fc25414      0x25c build/udp_pic32mz_ef_sk/production/_ext/1164207549/ipv4.o
                0x9fc25414                TCPIP_IPV4_PacketFormatTx

.text           0x9fc25670      0x25c
 .text          0x9fc25670      0x25c build/udp_pic32mz_ef_sk/production/_ext/1164207549/tcpip_helper_c32.o
                0x9fc25670                TCPIP_Helper_htonl
                0x9fc2567c                TCPIP_Helper_htons
                0x9fc25688                TCPIP_Helper_htonll
                0x9fc2569c                TCPIP_Helper_CalcIPChecksum

.text.IntHandlerDrvTmrInstance0
                0x9fc258cc      0x254
 .text.IntHandlerDrvTmrInstance0
                0x9fc258cc      0x254 build/udp_pic32mz_ef_sk/production/_ext/2145045400/system_interrupt.o
                0x9fc258cc                IntHandlerDrvTmrInstance0

.text._IntHandler_ETHMAC
                0x9fc25b20      0x250
 .text._IntHandler_ETHMAC
                0x9fc25b20      0x250 build/udp_pic32mz_ef_sk/production/_ext/2145045400/system_interrupt.o
                0x9fc25b20                _IntHandler_ETHMAC

.text.DRV_ETHMAC_PIC32MACPacketRx
                0x9fc25d70      0x24c
 .text.DRV_ETHMAC_PIC32MACPacketRx
                0x9fc25d70      0x24c build/udp_pic32mz_ef_sk/production/_ext/1697634946/drv_ethmac.o
                0x9fc25d70                DRV_ETHMAC_PIC32MACPacketRx

.text._UDPOpen  0x9fc25fbc      0x238
 .text._UDPOpen
                0x9fc25fbc      0x238 build/udp_pic32mz_ef_sk/production/_ext/1164207549/udp.o

.text.DRV_ETHMAC_LibRxBuffersAppend
                0x9fc261f4      0x228
 .text.DRV_ETHMAC_LibRxBuffersAppend
                0x9fc261f4      0x228 build/udp_pic32mz_ef_sk/production/_ext/1697634946/drv_ethmac_lib.o
                0x9fc261f4                DRV_ETHMAC_LibRxBuffersAppend

.text._TCPIP_HEAP_Free
                0x9fc2641c      0x228
 .text._TCPIP_HEAP_Free
                0x9fc2641c      0x228 build/udp_pic32mz_ef_sk/production/_ext/1164207549/tcpip_heap_internal.o

.text._DRV_PHY_SMITransferDo
                0x9fc26644      0x1f8
 .text._DRV_PHY_SMITransferDo
                0x9fc26644      0x1f8 build/udp_pic32mz_ef_sk/production/_ext/521481140/drv_ethphy.o

.text._DRV_ETHPHY_SetupPhaseDetect
                0x9fc2683c      0x1f0
 .text._DRV_ETHPHY_SetupPhaseDetect
                0x9fc2683c      0x1f0 build/udp_pic32mz_ef_sk/production/_ext/521481140/drv_ethphy.o

.text.DRV_ETHMAC_PIC32MACPacketTx
                0x9fc26a2c      0x1d4
 .text.DRV_ETHMAC_PIC32MACPacketTx
                0x9fc26a2c      0x1d4 build/udp_pic32mz_ef_sk/production/_ext/1697634946/drv_ethmac.o
                0x9fc26a2c                DRV_ETHMAC_PIC32MACPacketTx

.text.SYS_PORTS_Initialize
                0x9fc26c00      0x1cc
 .text.SYS_PORTS_Initialize
                0x9fc26c00      0x1cc build/udp_pic32mz_ef_sk/production/_ext/641914703/sys_ports_static.o
                0x9fc26c00                SYS_PORTS_Initialize

.text.TCPIP_Helper_StringToIPAddress
                0x9fc26dcc      0x1cc
 .text.TCPIP_Helper_StringToIPAddress
                0x9fc26dcc      0x1cc build/udp_pic32mz_ef_sk/production/_ext/1164207549/tcpip_helpers.o
                0x9fc26dcc                TCPIP_Helper_StringToIPAddress

.text._DRV_ETHMAC_AddRxBuffers
                0x9fc26f98      0x1c8
 .text._DRV_ETHMAC_AddRxBuffers
                0x9fc26f98      0x1c8 build/udp_pic32mz_ef_sk/production/_ext/1697634946/drv_ethmac.o

.text._EthAckPacket
                0x9fc27160      0x1bc
 .text._EthAckPacket
                0x9fc27160      0x1bc build/udp_pic32mz_ef_sk/production/_ext/1697634946/drv_ethmac_lib.o

.text.DRV_ETHMAC_LibRxAcknowledgeBuffer
                0x9fc2731c      0x1bc
 .text.DRV_ETHMAC_LibRxAcknowledgeBuffer
                0x9fc2731c      0x1bc build/udp_pic32mz_ef_sk/production/_ext/1697634946/drv_ethmac_lib.o
                0x9fc2731c                DRV_ETHMAC_LibRxAcknowledgeBuffer

.text._LoadNetworkConfig
                0x9fc274d8      0x1bc
 .text._LoadNetworkConfig
                0x9fc274d8      0x1bc build/udp_pic32mz_ef_sk/production/_ext/1164207549/tcpip_manager.o

.text.TCPIP_UDP_ArrayGet
                0x9fc27694      0x1b0
 .text.TCPIP_UDP_ArrayGet
                0x9fc27694      0x1b0 build/udp_pic32mz_ef_sk/production/_ext/1164207549/udp.o
                0x9fc27694                TCPIP_UDP_ArrayGet

.text.DRV_TMR_Initialize
                0x9fc27844      0x1a0
 .text.DRV_TMR_Initialize
                0x9fc27844      0x1a0 build/udp_pic32mz_ef_sk/production/_ext/941160041/drv_tmr.o
                0x9fc27844                DRV_TMR_Initialize

.text.DRV_ETHMAC_LibRxGetPacket
                0x9fc279e4      0x19c
 .text.DRV_ETHMAC_LibRxGetPacket
                0x9fc279e4      0x19c build/udp_pic32mz_ef_sk/production/_ext/1697634946/drv_ethmac_lib.o
                0x9fc279e4                DRV_ETHMAC_LibRxGetPacket

.text.DRV_EXTPHY_MDIXConfigure
                0x9fc27b80      0x198
 .text.DRV_EXTPHY_MDIXConfigure
                0x9fc27b80      0x198 build/udp_pic32mz_ef_sk/production/_ext/521481140/drv_extphy_smsc8740.o

.text._ARPProbeAddress
                0x9fc27d18      0x198
 .text._ARPProbeAddress
                0x9fc27d18      0x198 build/udp_pic32mz_ef_sk/production/_ext/1164207549/arp.o

.text._sbrk_init
                0x9fc27eb0      0x194
 .text._sbrk_init
                0x9fc27eb0      0x194 c:/program files (x86)/microchip/xc32/v1.42/bin/bin/../../lib/gcc/pic32mx/4.8.3/../../../../pic32mx/lib/fpu64\libpic32.a(sbrk.o)
                0x9fc27eb0                _sbrk_init

.text.TCPIP_UDP_Deinitialize
                0x9fc28044      0x190
 .text.TCPIP_UDP_Deinitialize
                0x9fc28044      0x190 build/udp_pic32mz_ef_sk/production/_ext/1164207549/udp.o
                0x9fc28044                TCPIP_UDP_Deinitialize

.text._SYS_TMR_ClientCreate
                0x9fc281d4      0x18c
 .text._SYS_TMR_ClientCreate
                0x9fc281d4      0x18c build/udp_pic32mz_ef_sk/production/_ext/2110151058/sys_tmr.o

.text._DRV_ETHPHY_NegResultPhase_ANAD
                0x9fc28360      0x180
 .text._DRV_ETHPHY_NegResultPhase_ANAD
                0x9fc28360      0x180 build/udp_pic32mz_ef_sk/production/_ext/521481140/drv_ethphy.o

.text.DRV_ETHMAC_LibTxSendPacket
                0x9fc284e0      0x17c
 .text.DRV_ETHMAC_LibTxSendPacket
                0x9fc284e0      0x17c build/udp_pic32mz_ef_sk/production/_ext/1697634946/drv_ethmac_lib.o
                0x9fc284e0                DRV_ETHMAC_LibTxSendPacket

.text.DRV_EXTPHY_MIIConfigure
                0x9fc2865c      0x174
 .text.DRV_EXTPHY_MIIConfigure
                0x9fc2865c      0x174 build/udp_pic32mz_ef_sk/production/_ext/521481140/drv_extphy_smsc8740.o

.text._TCPIP_HEAP_Malloc
                0x9fc287d0      0x174
 .text._TCPIP_HEAP_Malloc
                0x9fc287d0      0x174 build/udp_pic32mz_ef_sk/production/_ext/1164207549/tcpip_heap_internal.o

.text.TCPIP_HEAP_CreateInternal
                0x9fc28944      0x170
 .text.TCPIP_HEAP_CreateInternal
                0x9fc28944      0x170 build/udp_pic32mz_ef_sk/production/_ext/1164207549/tcpip_heap_internal.o
                0x9fc28944                TCPIP_HEAP_CreateInternal

.text           0x9fc28ab4      0x168
 .text          0x9fc28ab4      0x168 c:/program files (x86)/microchip/xc32/v1.42/bin/bin/../../lib/gcc/pic32mx/4.8.3/../../../../pic32mx/lib/fpu64\libpic32.a(memcpy.o)
                0x9fc28ab4                memcpy

.text.TCPIP_IPV4_SelectSourceInterface
                0x9fc28c1c      0x164
 .text.TCPIP_IPV4_SelectSourceInterface
                0x9fc28c1c      0x164 build/udp_pic32mz_ef_sk/production/_ext/1164207549/ipv4.o
                0x9fc28c1c                TCPIP_IPV4_SelectSourceInterface

.text._DRV_ETHPHY_SetupPhaseReset
                0x9fc28d80      0x15c
 .text._DRV_ETHPHY_SetupPhaseReset
                0x9fc28d80      0x15c build/udp_pic32mz_ef_sk/production/_ext/521481140/drv_ethphy.o

.text._ARPSendIfPkt
                0x9fc28edc      0x154
 .text._ARPSendIfPkt
                0x9fc28edc      0x154 build/udp_pic32mz_ef_sk/production/_ext/1164207549/arp.o

.text._MACDeinit
                0x9fc29030      0x150
 .text._MACDeinit
                0x9fc29030      0x150 build/udp_pic32mz_ef_sk/production/_ext/1697634946/drv_ethmac.o

.text.Bootloader_ProcessBuffer
                0x9fc29180      0x14c
 .text.Bootloader_ProcessBuffer
                0x9fc29180      0x14c build/udp_pic32mz_ef_sk/production/_ext/615392287/datastream.o
                0x9fc29180                Bootloader_ProcessBuffer

.text.DRV_ETHMAC_PIC32MACEventMaskSet
                0x9fc292cc      0x14c
 .text.DRV_ETHMAC_PIC32MACEventMaskSet
                0x9fc292cc      0x14c build/udp_pic32mz_ef_sk/production/_ext/1697634946/drv_ethmac.o
                0x9fc292cc                DRV_ETHMAC_PIC32MACEventMaskSet

.rodata         0x9fc29418      0x148
 .rodata        0x9fc29418      0x148 build/udp_pic32mz_ef_sk/production/_ext/2145045400/system_init.o
                0x9fc29418                TCPIP_STACK_MODULE_CONFIG_TBL
                0x9fc29488                TCPIP_HOSTS_CONFIGURATION
                0x9fc294c0                tcpipMACPIC32INTInitData
                0x9fc294e0                tcpipPhyInitData
                0x9fc29504                tcpipUDPInitData
                0x9fc2950c                tcpipARPInitData
                0x9fc29534                sysTmrInitData
                0x9fc2953c                BootloaderInitData
                0x9fc29544                drvTmr0InitData

.text._EthAppendBusyList
                0x9fc29560      0x148
 .text._EthAppendBusyList
                0x9fc29560      0x148 build/udp_pic32mz_ef_sk/production/_ext/1697634946/drv_ethmac_lib.o

.text._DRV_ETHPHY_SetupPhaseIdle
                0x9fc296a8      0x144
 .text._DRV_ETHPHY_SetupPhaseIdle
                0x9fc296a8      0x144 build/udp_pic32mz_ef_sk/production/_ext/521481140/drv_ethphy.o

.text.fputc     0x9fc297ec      0x144
 .text.fputc    0x9fc297ec      0x144 c:/program files (x86)/microchip/xc32/v1.42/bin/bin/../../lib/gcc/pic32mx/4.8.3/../../../../pic32mx/lib/fpu64\libc.a(_fputc_simple.o)
                0x9fc297ec                fputc

.text.SYS_Initialize
                0x9fc29930      0x140
 .text.SYS_Initialize
                0x9fc29930      0x140 build/udp_pic32mz_ef_sk/production/_ext/2145045400/system_init.o
                0x9fc29930                SYS_Initialize

.text.Bootloader_BufferEventHandler
                0x9fc29a70      0x140
 .text.Bootloader_BufferEventHandler
                0x9fc29a70      0x140 build/udp_pic32mz_ef_sk/production/_ext/615392287/datastream.o
                0x9fc29a70                Bootloader_BufferEventHandler

.text.TCPIP_UDP_OpenServerSkt
                0x9fc29bb0      0x140
 .text.TCPIP_UDP_OpenServerSkt
                0x9fc29bb0      0x140 build/udp_pic32mz_ef_sk/production/_ext/1164207549/udp.o
                0x9fc29bb0                TCPIP_UDP_OpenServerSkt

.text._UDPv4TxAckFnc
                0x9fc29cf0      0x13c
 .text._UDPv4TxAckFnc
                0x9fc29cf0      0x13c build/udp_pic32mz_ef_sk/production/_ext/1164207549/udp.o

.text.DATASTREAM_Open
                0x9fc29e2c      0x138
 .text.DATASTREAM_Open
                0x9fc29e2c      0x138 build/udp_pic32mz_ef_sk/production/_ext/615392287/datastream_udp.o
                0x9fc29e2c                DATASTREAM_Open

.text.DRV_ETHMAC_PIC32MACTasks
                0x9fc29f64      0x134
 .text.DRV_ETHMAC_PIC32MACTasks
                0x9fc29f64      0x134 build/udp_pic32mz_ef_sk/production/_ext/1697634946/drv_ethmac.o
                0x9fc29f64                DRV_ETHMAC_PIC32MACTasks

.rodata         0x9fc2a098      0x134
 .rodata        0x9fc2a098      0x134 build/udp_pic32mz_ef_sk/production/_ext/521481140/drv_ethphy.o
                0x9fc2a0b4                DRV_ETHPHY_OBJECT_BASE_Default

.text._ARPDeleteResources
                0x9fc2a1cc      0x130
 .text._ARPDeleteResources
                0x9fc2a1cc      0x130 build/udp_pic32mz_ef_sk/production/_ext/1164207549/arp.o

.text.DRV_ETHMAC_LibDescriptorsPoolAdd
                0x9fc2a2fc      0x12c
 .text.DRV_ETHMAC_LibDescriptorsPoolAdd
                0x9fc2a2fc      0x12c build/udp_pic32mz_ef_sk/production/_ext/1697634946/drv_ethmac_lib.o
                0x9fc2a2fc                DRV_ETHMAC_LibDescriptorsPoolAdd

.text.DRV_TMR_AlarmRegister
                0x9fc2a428      0x12c
 .text.DRV_TMR_AlarmRegister
                0x9fc2a428      0x12c build/udp_pic32mz_ef_sk/production/_ext/941160041/drv_tmr.o
                0x9fc2a428                DRV_TMR_AlarmRegister

.text._flsbuf   0x9fc2a554      0x12c
 .text._flsbuf  0x9fc2a554      0x12c c:/program files (x86)/microchip/xc32/v1.42/bin/bin/../../lib/gcc/pic32mx/4.8.3/../../../../pic32mx/lib/fpu64\libc.a(_flsbuf_simple.o)
                0x9fc2a554                _flsbuf

.rodata         0x9fc2a680      0x128
 .rodata        0x9fc2a680      0x128 build/udp_pic32mz_ef_sk/production/_ext/2145045400/system_exceptions.o

.text._OAHashFindBkt
                0x9fc2a7a8      0x124
 .text._OAHashFindBkt
                0x9fc2a7a8      0x124 build/udp_pic32mz_ef_sk/production/_ext/1164207549/oahash.o

.text.TCPIP_Helper_StringToMACAddress
                0x9fc2a8cc      0x124
 .text.TCPIP_Helper_StringToMACAddress
                0x9fc2a8cc      0x124 build/udp_pic32mz_ef_sk/production/_ext/1164207549/tcpip_helpers.o
                0x9fc2a8cc                TCPIP_Helper_StringToMACAddress

.text.DRV_ETHMAC_PIC32MACRxFilterHashTableEntrySet
                0x9fc2a9f0      0x120
 .text.DRV_ETHMAC_PIC32MACRxFilterHashTableEntrySet
                0x9fc2a9f0      0x120 build/udp_pic32mz_ef_sk/production/_ext/1697634946/drv_ethmac.o
                0x9fc2a9f0                DRV_ETHMAC_PIC32MACRxFilterHashTableEntrySet

.text           0x9fc2ab10      0x120
 .text          0x9fc2ab10      0x120 c:/program files (x86)/microchip/xc32/v1.42/bin/bin/../../lib/gcc/pic32mx/4.8.3/../../../../pic32mx/lib/fpu64\libpic32.a(strcmp.o)
                0x9fc2ab10                strcmp

.text.TCPIP_IPV4_ArpHandler
                0x9fc2ac30      0x11c
 .text.TCPIP_IPV4_ArpHandler
                0x9fc2ac30      0x11c build/udp_pic32mz_ef_sk/production/_ext/1164207549/ipv4.o

.text.TCPIP_ARP_IsResolved
                0x9fc2ad4c      0x11c
 .text.TCPIP_ARP_IsResolved
                0x9fc2ad4c      0x11c build/udp_pic32mz_ef_sk/production/_ext/1164207549/arp.o
                0x9fc2ad4c                TCPIP_ARP_IsResolved

.text._MacRxPacketAck
                0x9fc2ae68      0x118
 .text._MacRxPacketAck
                0x9fc2ae68      0x118 build/udp_pic32mz_ef_sk/production/_ext/1697634946/drv_ethmac.o

.text._DRV_ETHPHY_SetupPhaseNegotiate_SubPhase3
                0x9fc2af80      0x118
 .text._DRV_ETHPHY_SetupPhaseNegotiate_SubPhase3
                0x9fc2af80      0x118 build/udp_pic32mz_ef_sk/production/_ext/521481140/drv_ethphy.o

.text.TCPIP_UDP_Initialize
                0x9fc2b098      0x118
 .text.TCPIP_UDP_Initialize
                0x9fc2b098      0x118 build/udp_pic32mz_ef_sk/production/_ext/1164207549/udp.o
                0x9fc2b098                TCPIP_UDP_Initialize

.text.TCPIP_Helper_PacketChecksum
                0x9fc2b1b0      0x118
 .text.TCPIP_Helper_PacketChecksum
                0x9fc2b1b0      0x118 build/udp_pic32mz_ef_sk/production/_ext/1164207549/tcpip_helpers.o
                0x9fc2b1b0                TCPIP_Helper_PacketChecksum

.text.BSP_LEDStateSet
                0x9fc2b2c8      0x114
 .text.BSP_LEDStateSet
                0x9fc2b2c8      0x114 build/udp_pic32mz_ef_sk/production/_ext/938613576/bsp.o
                0x9fc2b2c8                BSP_LEDStateSet

.text.DRV_ETHMAC_PIC32MACStatisticsGet
                0x9fc2b3dc      0x114
 .text.DRV_ETHMAC_PIC32MACStatisticsGet
                0x9fc2b3dc      0x114 build/udp_pic32mz_ef_sk/production/_ext/1697634946/drv_ethmac.o
                0x9fc2b3dc                DRV_ETHMAC_PIC32MACStatisticsGet

.text.TCPIP_STACK_KillStack
                0x9fc2b4f0      0x110
 .text.TCPIP_STACK_KillStack
                0x9fc2b4f0      0x110 build/udp_pic32mz_ef_sk/production/_ext/1164207549/tcpip_manager.o

.text.DRV_ETHMAC_LibInit
                0x9fc2b600      0x10c
 .text.DRV_ETHMAC_LibInit
                0x9fc2b600      0x10c build/udp_pic32mz_ef_sk/production/_ext/1697634946/drv_ethmac_lib.o
                0x9fc2b600                DRV_ETHMAC_LibInit

.text._UDPv4AllocateSktTxBuffer
                0x9fc2b70c      0x108
 .text._UDPv4AllocateSktTxBuffer
                0x9fc2b70c      0x108 build/udp_pic32mz_ef_sk/production/_ext/1164207549/udp.o

.text.SYS_DEVCON_PerformanceConfig
                0x9fc2b814      0x104
 .text.SYS_DEVCON_PerformanceConfig
                0x9fc2b814      0x104 build/udp_pic32mz_ef_sk/production/_ext/2092611130/sys_devcon_pic32mz.o
                0x9fc2b814                SYS_DEVCON_PerformanceConfig

.rodata         0x9fc2b918      0x204
 .rodata        0x9fc2b918      0x104 c:/program files (x86)/microchip/xc32/v1.42/bin/bin/../../lib/gcc/pic32mx/4.8.3/../../../../pic32mx/lib/fpu64\libc.a(ctype.o)
                0x9fc2b918                _ctype
 .rodata        0x9fc2ba1c      0x100 build/udp_pic32mz_ef_sk/production/_ext/1697634946/drv_ethmac.o
                0x9fc2bac4                DRV_ETHMAC_PIC32MACObject

.text.DRV_ETHPHY_Setup
                0x9fc2bb1c      0x100
 .text.DRV_ETHPHY_Setup
                0x9fc2bb1c      0x100 build/udp_pic32mz_ef_sk/production/_ext/521481140/drv_ethphy.o
                0x9fc2bb1c                DRV_ETHPHY_Setup

.text.SYS_CLK_Initialize
                0x9fc2bc1c       0xfc
 .text.SYS_CLK_Initialize
                0x9fc2bc1c       0xfc build/udp_pic32mz_ef_sk/production/_ext/1991045727/sys_clk_pic32mz.o
                0x9fc2bc1c                SYS_CLK_Initialize

.text.DRV_ETHMAC_Tasks_ISR
                0x9fc2bd18       0xf8
 .text.DRV_ETHMAC_Tasks_ISR
                0x9fc2bd18       0xf8 build/udp_pic32mz_ef_sk/production/_ext/1697634946/drv_ethmac.o
                0x9fc2bd18                DRV_ETHMAC_Tasks_ISR

.text._UDPsetPacketInfo
                0x9fc2be10       0xf8
 .text._UDPsetPacketInfo
                0x9fc2be10       0xf8 build/udp_pic32mz_ef_sk/production/_ext/1164207549/udp.o

.text._DRV_ETHPHY_NegCompletePhaseAN_Restart
                0x9fc2bf08       0xf4
 .text._DRV_ETHPHY_NegCompletePhaseAN_Restart
                0x9fc2bf08       0xf4 build/udp_pic32mz_ef_sk/production/_ext/521481140/drv_ethphy.o

.text._TCPIP_StackSyncFunction
                0x9fc2bffc       0xf4
 .text._TCPIP_StackSyncFunction
                0x9fc2bffc       0xf4 build/udp_pic32mz_ef_sk/production/_ext/1164207549/tcpip_manager.o

.text.DRV_ETHMAC_LibMACOpen
                0x9fc01010       0xf0
 .text.DRV_ETHMAC_LibMACOpen
                0x9fc01010       0xf0 build/udp_pic32mz_ef_sk/production/_ext/1697634946/drv_ethmac_lib.o
                0x9fc01010                DRV_ETHMAC_LibMACOpen

.text._DRV_ETHPHY_ResetPhaseRead
                0x9fc2c0f0       0xf0
 .text._DRV_ETHPHY_ResetPhaseRead
                0x9fc2c0f0       0xf0 build/udp_pic32mz_ef_sk/production/_ext/521481140/drv_ethphy.o

.text.DRV_ETHMAC_PIC32MACProcess
                0x9fc2c1e0       0xec
 .text.DRV_ETHMAC_PIC32MACProcess
                0x9fc2c1e0       0xec build/udp_pic32mz_ef_sk/production/_ext/1697634946/drv_ethmac.o
                0x9fc2c1e0                DRV_ETHMAC_PIC32MACProcess

.text._DRV_ETHPHY_SetupPhaseNegotiate_SubPhase0
                0x9fc2c2cc       0xec
 .text._DRV_ETHPHY_SetupPhaseNegotiate_SubPhase0
                0x9fc2c2cc       0xec build/udp_pic32mz_ef_sk/production/_ext/521481140/drv_ethphy.o

.text.TCPIP_IPV4_DeInitialize
                0x9fc2c3b8       0xec
 .text.TCPIP_IPV4_DeInitialize
                0x9fc2c3b8       0xec build/udp_pic32mz_ef_sk/production/_ext/1164207549/ipv4.o
                0x9fc2c3b8                TCPIP_IPV4_DeInitialize

.text._DRV_TMR_ClockSourceSet
                0x9fc2c4a4       0xe8
 .text._DRV_TMR_ClockSourceSet
                0x9fc2c4a4       0xe8 build/udp_pic32mz_ef_sk/production/_ext/941160041/drv_tmr.o

.text._SYS_TMR_ClientParamSet
                0x9fc2c58c       0xe8
 .text._SYS_TMR_ClientParamSet
                0x9fc2c58c       0xe8 build/udp_pic32mz_ef_sk/production/_ext/2110151058/sys_tmr.o

.text.TCPIP_OAHASH_EntryLookup
                0x9fc2c674       0xe0
 .text.TCPIP_OAHASH_EntryLookup
                0x9fc2c674       0xe0 build/udp_pic32mz_ef_sk/production/_ext/1164207549/oahash.o
                0x9fc2c674                TCPIP_OAHASH_EntryLookup

.text.TCPIP_STACK_BringNetDown
                0x9fc2c754       0xe0
 .text.TCPIP_STACK_BringNetDown
                0x9fc2c754       0xe0 build/udp_pic32mz_ef_sk/production/_ext/1164207549/tcpip_manager.o

.text._TCPIP_PKT_PacketAlloc
                0x9fc2c834       0xe0
 .text._TCPIP_PKT_PacketAlloc
                0x9fc2c834       0xe0 build/udp_pic32mz_ef_sk/production/_ext/1164207549/tcpip_packet.o
                0x9fc2c834                _TCPIP_PKT_PacketAlloc

.text.general_exception
                0x9fc2c914       0xdc
 .text.general_exception
                0x9fc2c914       0xdc c:/program files (x86)/microchip/xc32/v1.42/bin/bin/../../lib/gcc/pic32mx/4.8.3/../../../../pic32mx/lib/fpu64\libpic32.a(general-exception.o)
                0x9fc2c914                _general_exception_context

.text._ARPUpdateEntry
                0x9fc2c9f0       0xd8
 .text._ARPUpdateEntry
                0x9fc2c9f0       0xd8 build/udp_pic32mz_ef_sk/production/_ext/1164207549/arp.o

.text._cache_err_exception_context
                0x9fc2cac8       0xd8
 .text._cache_err_exception_context
                0x9fc2cac8       0xd8 c:/program files (x86)/microchip/xc32/v1.42/bin/bin/../../lib/gcc/pic32mx/4.8.3/../../../../pic32mx/lib/fpu64\libpic32.a(cache-err-exception.o)
                0x9fc2cac8                _cache_err_exception_context

.text.simple_tlb_refill_context
                0x9fc2cba0       0xd8
 .text.simple_tlb_refill_context
                0x9fc2cba0       0xd8 c:/program files (x86)/microchip/xc32/v1.42/bin/bin/../../lib/gcc/pic32mx/4.8.3/../../../../pic32mx/lib/fpu64\libpic32.a(simple-tlb-refill-exception.o)
                0x9fc2cba0                _simple_tlb_refill_exception_context

.text.DATASTREAM_Close
                0x9fc2cc78       0xd4
 .text.DATASTREAM_Close
                0x9fc2cc78       0xd4 build/udp_pic32mz_ef_sk/production/_ext/615392287/datastream_udp.o
                0x9fc2cc78                DATASTREAM_Close

.text._MacTxPendingPackets
                0x9fc2cd4c       0xd4
 .text._MacTxPendingPackets
                0x9fc2cd4c       0xd4 build/udp_pic32mz_ef_sk/production/_ext/1697634946/drv_ethmac.o

.text._DRV_ETHPHY_NegResultPhase_BMSTAT
                0x9fc2ce20       0xd4
 .text._DRV_ETHPHY_NegResultPhase_BMSTAT
                0x9fc2ce20       0xd4 build/udp_pic32mz_ef_sk/production/_ext/521481140/drv_ethphy.o

.text.DRV_TMR_CounterFrequencyGet
                0x9fc2cef4       0xd4
 .text.DRV_TMR_CounterFrequencyGet
                0x9fc2cef4       0xd4 build/udp_pic32mz_ef_sk/production/_ext/941160041/drv_tmr.o
                0x9fc2cef4                DRV_TMR_CounterFrequencyGet

.text._mon_putc
                0x9fc2cfc8       0xd4
 .text._mon_putc
                0x9fc2cfc8       0xd4 c:/program files (x86)/microchip/xc32/v1.42/bin/bin/../../lib/gcc/pic32mx/4.8.3/../../../../pic32mx/lib/fpu64\libpic32.a(_mon_putc.o)
                0x9fc2cfc8                _mon_putc

.text.DATASTREAM_Tasks
                0x9fc2d09c       0xd0
 .text.DATASTREAM_Tasks
                0x9fc2d09c       0xd0 build/udp_pic32mz_ef_sk/production/_ext/615392287/datastream_udp.o
                0x9fc2d09c                DATASTREAM_Tasks

.text._DRV_ETHMAC_LinkStateNegResult
                0x9fc2d16c       0xd0
 .text._DRV_ETHMAC_LinkStateNegResult
                0x9fc2d16c       0xd0 build/udp_pic32mz_ef_sk/production/_ext/1697634946/drv_ethmac.o

.text.DRV_ETHMAC_LibTxAcknowledgeBuffer
                0x9fc2d23c       0xd0
 .text.DRV_ETHMAC_LibTxAcknowledgeBuffer
                0x9fc2d23c       0xd0 build/udp_pic32mz_ef_sk/production/_ext/1697634946/drv_ethmac_lib.o
                0x9fc2d23c                DRV_ETHMAC_LibTxAcknowledgeBuffer

.rodata         0x9fc2d310       0xd0
 .rodata        0x9fc2d310       0xd0 c:/program files (x86)/microchip/xc32/v1.42/bin/bin/../../lib/gcc/pic32mx/4.8.3/../../../../pic32mx/lib/fpu64\libc.a(doprnt_cdnopsuxX.eo)

.text.DRV_TMR_Tasks
                0x9fc2d3e0       0xc8
 .text.DRV_TMR_Tasks
                0x9fc2d3e0       0xc8 build/udp_pic32mz_ef_sk/production/_ext/941160041/drv_tmr.o
                0x9fc2d3e0                DRV_TMR_Tasks

.text.TCPIP_OAHASH_EntryLookupOrInsert
                0x9fc2d4a8       0xc8
 .text.TCPIP_OAHASH_EntryLookupOrInsert
                0x9fc2d4a8       0xc8 build/udp_pic32mz_ef_sk/production/_ext/1164207549/oahash.o
                0x9fc2d4a8                TCPIP_OAHASH_EntryLookupOrInsert

.text._TCPIPStackModuleRxPurge
                0x9fc2d570       0xc8
 .text._TCPIPStackModuleRxPurge
                0x9fc2d570       0xc8 build/udp_pic32mz_ef_sk/production/_ext/1164207549/tcpip_manager.o
                0x9fc2d570                _TCPIPStackModuleRxPurge

.text._sbrk     0x9fc2d638       0xc8
 .text._sbrk    0x9fc2d638       0xc8 c:/program files (x86)/microchip/xc32/v1.42/bin/bin/../../lib/gcc/pic32mx/4.8.3/../../../../pic32mx/lib/fpu64\libpic32.a(sbrk.o)
                0x9fc2d638                _sbrk

.text._DRV_TMR_ClockPrescaleSet
                0x9fc2d700       0xc4
 .text._DRV_TMR_ClockPrescaleSet
                0x9fc2d700       0xc4 build/udp_pic32mz_ef_sk/production/_ext/941160041/drv_tmr.o

.text.SYS_TMR_Initialize
                0x9fc2d7c4       0xc4
 .text.SYS_TMR_Initialize
                0x9fc2d7c4       0xc4 build/udp_pic32mz_ef_sk/production/_ext/2110151058/sys_tmr.o
                0x9fc2d7c4                SYS_TMR_Initialize

.text.TCPIP_UDP_ArrayPut
                0x9fc2d888       0xc0
 .text.TCPIP_UDP_ArrayPut
                0x9fc2d888       0xc0 build/udp_pic32mz_ef_sk/production/_ext/1164207549/udp.o
                0x9fc2d888                TCPIP_UDP_ArrayPut

.text.TCPIP_PKT_DataSegmentGet
                0x9fc2d948       0xbc
 .text.TCPIP_PKT_DataSegmentGet
                0x9fc2d948       0xbc build/udp_pic32mz_ef_sk/production/_ext/1164207549/tcpip_packet.o
                0x9fc2d948                TCPIP_PKT_DataSegmentGet

.tlb.__pic32_tlb_init_ebi_sqi
                0x9fc2da04       0xbc
 .tlb.__pic32_tlb_init_ebi_sqi
                0x9fc2da04       0xbc c:/program files (x86)/microchip/xc32/v1.42/bin/bin/../../lib/gcc/pic32mx/4.8.3/../../../../pic32mx/lib/fpu64\libpic32.a(pic32_init_tlb_ebi_sqi.o)
                0x9fc2da04                __pic32_tlb_init_ebi_sqi

.text._EthTxSchedBuffer
                0x9fc2dac0       0xb4
 .text._EthTxSchedBuffer
                0x9fc2dac0       0xb4 build/udp_pic32mz_ef_sk/production/_ext/1697634946/drv_ethmac_lib.o

.text._TCPIP_HEAP_MaxSize
                0x9fc2db74       0xb4
 .text._TCPIP_HEAP_MaxSize
                0x9fc2db74       0xb4 build/udp_pic32mz_ef_sk/production/_ext/1164207549/tcpip_heap_internal.o

.text._ARPNotifyClients
                0x9fc2dc28       0xb4
 .text._ARPNotifyClients
                0x9fc2dc28       0xb4 build/udp_pic32mz_ef_sk/production/_ext/1164207549/arp.o

.text._DRV_ETHPHY_ResetPhaseWrite
                0x9fc2dcdc       0xb0
 .text._DRV_ETHPHY_ResetPhaseWrite
                0x9fc2dcdc       0xb0 build/udp_pic32mz_ef_sk/production/_ext/521481140/drv_ethphy.o

.text.DRV_ETHPHY_VendorSMIWriteStart
                0x9fc2dd8c       0xb0
 .text.DRV_ETHPHY_VendorSMIWriteStart
                0x9fc2dd8c       0xb0 build/udp_pic32mz_ef_sk/production/_ext/521481140/drv_ethphy.o
                0x9fc2dd8c                DRV_ETHPHY_VendorSMIWriteStart

.text._SYS_TMR_ClientCheckSrvLock
                0x9fc2de3c       0xb0
 .text._SYS_TMR_ClientCheckSrvLock
                0x9fc2de3c       0xb0 build/udp_pic32mz_ef_sk/production/_ext/2110151058/sys_tmr.o

.text.BSP_LEDOff
                0x9fc2deec       0xac
 .text.BSP_LEDOff
                0x9fc2deec       0xac build/udp_pic32mz_ef_sk/production/_ext/938613576/bsp.o
                0x9fc2deec                BSP_LEDOff

.text._DRV_ETHMAC_LinkStateWaitLinkUp
                0x9fc2df98       0xac
 .text._DRV_ETHMAC_LinkStateWaitLinkUp
                0x9fc2df98       0xac build/udp_pic32mz_ef_sk/production/_ext/1697634946/drv_ethmac.o

.text._DRV_ETHPHY_NegCompletePhaseRead2
                0x9fc2e044       0xac
 .text._DRV_ETHPHY_NegCompletePhaseRead2
                0x9fc2e044       0xac build/udp_pic32mz_ef_sk/production/_ext/521481140/drv_ethphy.o

.text.DRV_ETHPHY_VendorSMIReadStart
                0x9fc2e0f0       0xac
 .text.DRV_ETHPHY_VendorSMIReadStart
                0x9fc2e0f0       0xac build/udp_pic32mz_ef_sk/production/_ext/521481140/drv_ethphy.o
                0x9fc2e0f0                DRV_ETHPHY_VendorSMIReadStart

.text._TCPIPStackInsertRxPacket
                0x9fc2e19c       0xac
 .text._TCPIPStackInsertRxPacket
                0x9fc2e19c       0xac build/udp_pic32mz_ef_sk/production/_ext/1164207549/tcpip_manager.o
                0x9fc2e19c                _TCPIPStackInsertRxPacket

.text.DRV_ETHMAC_PIC32MACRegisterStatisticsGet
                0x9fc2e248       0xa8
 .text.DRV_ETHMAC_PIC32MACRegisterStatisticsGet
                0x9fc2e248       0xa8 build/udp_pic32mz_ef_sk/production/_ext/1697634946/drv_ethmac.o
                0x9fc2e248                DRV_ETHMAC_PIC32MACRegisterStatisticsGet

.text.DRV_ETHPHY_SMIWrite
                0x9fc2e2f0       0xa8
 .text.DRV_ETHPHY_SMIWrite
                0x9fc2e2f0       0xa8 build/udp_pic32mz_ef_sk/production/_ext/521481140/drv_ethphy.o
                0x9fc2e2f0                DRV_ETHPHY_SMIWrite

.text._DRV_ETHPHY_SetupPhaseNegotiate_SubPhase6
                0x9fc2e398       0xa8
 .text._DRV_ETHPHY_SetupPhaseNegotiate_SubPhase6
                0x9fc2e398       0xa8 build/udp_pic32mz_ef_sk/production/_ext/521481140/drv_ethphy.o

.text           0x9fc2e440       0xa8
 .text          0x9fc2e440       0xa8 c:/program files (x86)/microchip/xc32/v1.42/bin/bin/../../lib/gcc/pic32mx/4.8.3/../../../../pic32mx/lib/fpu64\libpic32.a(memset.o)
                0x9fc2e440                memset

.text.atoi      0x9fc2e4e8       0xa8
 .text.atoi     0x9fc2e4e8       0xa8 c:/program files (x86)/microchip/xc32/v1.42/bin/bin/../../lib/gcc/pic32mx/4.8.3/../../../../pic32mx/lib/fpu64\libc.a(atoi.o)
                0x9fc2e4e8                atoi

.text.TCPIP_IPV4_Initialize
                0x9fc2e590       0xa4
 .text.TCPIP_IPV4_Initialize
                0x9fc2e590       0xa4 build/udp_pic32mz_ef_sk/production/_ext/1164207549/ipv4.o
                0x9fc2e590                TCPIP_IPV4_Initialize

.text.TCPIP_UDP_PutIsReady
                0x9fc2e634       0xa4
 .text.TCPIP_UDP_PutIsReady
                0x9fc2e634       0xa4 build/udp_pic32mz_ef_sk/production/_ext/1164207549/udp.o
                0x9fc2e634                TCPIP_UDP_PutIsReady

.text._TCPIP_PKT_PacketFree
                0x9fc2e6d8       0xa4
 .text._TCPIP_PKT_PacketFree
                0x9fc2e6d8       0xa4 build/udp_pic32mz_ef_sk/production/_ext/1164207549/tcpip_packet.o
                0x9fc2e6d8                _TCPIP_PKT_PacketFree

.text._DRV_ETHPHY_LinkStatPhaseRead
                0x9fc2e77c       0xa0
 .text._DRV_ETHPHY_LinkStatPhaseRead
                0x9fc2e77c       0xa0 build/udp_pic32mz_ef_sk/production/_ext/521481140/drv_ethphy.o

.text.TCPIP_Helper_SingleListNodeRemove
                0x9fc2e81c       0xa0
 .text.TCPIP_Helper_SingleListNodeRemove
                0x9fc2e81c       0xa0 build/udp_pic32mz_ef_sk/production/_ext/1164207549/tcpip_helpers.o
                0x9fc2e81c                TCPIP_Helper_SingleListNodeRemove

.text.TCPIP_PKT_PacketMACFormat
                0x9fc2e8bc       0xa0
 .text.TCPIP_PKT_PacketMACFormat
                0x9fc2e8bc       0xa0 build/udp_pic32mz_ef_sk/production/_ext/1164207549/tcpip_packet.o
                0x9fc2e8bc                TCPIP_PKT_PacketMACFormat

.text._DRV_ETHMAC_LinkStateGetLink
                0x9fc2e95c       0x9c
 .text._DRV_ETHMAC_LinkStateGetLink
                0x9fc2e95c       0x9c build/udp_pic32mz_ef_sk/production/_ext/1697634946/drv_ethmac.o

.text.write     0x9fc2e9f8       0x9c
 .text.write    0x9fc2e9f8       0x9c c:/program files (x86)/microchip/xc32/v1.42/bin/bin/../../lib/gcc/pic32mx/4.8.3/../../../../pic32mx/lib/fpu64\libpic32.a(write.o)
                0x9fc2e9f8                write

.text.Bootloader_Initialize
                0x9fc2ea94       0x98
 .text.Bootloader_Initialize
                0x9fc2ea94       0x98 build/udp_pic32mz_ef_sk/production/_ext/686445382/bootloader.o
                0x9fc2ea94                Bootloader_Initialize

.text.DRV_ETHMAC_PIC32MACEventAcknowledge
                0x9fc2eb2c       0x98
 .text.DRV_ETHMAC_PIC32MACEventAcknowledge
                0x9fc2eb2c       0x98 build/udp_pic32mz_ef_sk/production/_ext/1697634946/drv_ethmac.o
                0x9fc2eb2c                DRV_ETHMAC_PIC32MACEventAcknowledge

.text._EthTxSchedList
                0x9fc2ebc4       0x98
 .text._EthTxSchedList
                0x9fc2ebc4       0x98 build/udp_pic32mz_ef_sk/production/_ext/1697634946/drv_ethmac_lib.o

.text.DRV_ETHMAC_LibDescriptorsPoolCleanUp
                0x9fc2ec5c       0x98
 .text.DRV_ETHMAC_LibDescriptorsPoolCleanUp
                0x9fc2ec5c       0x98 build/udp_pic32mz_ef_sk/production/_ext/1697634946/drv_ethmac_lib.o
                0x9fc2ec5c                DRV_ETHMAC_LibDescriptorsPoolCleanUp

.text.DRV_ETHPHY_Initialize
                0x9fc2ecf4       0x98
 .text.DRV_ETHPHY_Initialize
                0x9fc2ecf4       0x98 build/udp_pic32mz_ef_sk/production/_ext/521481140/drv_ethphy.o
                0x9fc2ecf4                DRV_ETHPHY_Initialize

.text._UDPSetNewRxPacket
                0x9fc2ed8c       0x98
 .text._UDPSetNewRxPacket
                0x9fc2ed8c       0x98 build/udp_pic32mz_ef_sk/production/_ext/1164207549/udp.o

.text.TCPIP_Helper_FormatNetBIOSName
                0x9fc2ee24       0x98
 .text.TCPIP_Helper_FormatNetBIOSName
                0x9fc2ee24       0x98 build/udp_pic32mz_ef_sk/production/_ext/1164207549/tcpip_helpers.o
                0x9fc2ee24                TCPIP_Helper_FormatNetBIOSName

.text           0x9fc2eebc       0x98
 .text          0x9fc2eebc       0x98 c:/program files (x86)/microchip/xc32/v1.42/bin/bin/../../lib/gcc/pic32mx/4.8.3/../../../../pic32mx/lib/fpu64\libpic32.a(memcmp.o)
                0x9fc2eebc                memcmp

.text.DRV_ETHPHY_SMIClockSet
                0x9fc2ef54       0x94
 .text.DRV_ETHPHY_SMIClockSet
                0x9fc2ef54       0x94 build/udp_pic32mz_ef_sk/production/_ext/521481140/drv_ethphy.o
                0x9fc2ef54                DRV_ETHPHY_SMIClockSet

.text.TCPIP_ARP_Deinitialize
                0x9fc2efe8       0x94
 .text.TCPIP_ARP_Deinitialize
                0x9fc2efe8       0x94 build/udp_pic32mz_ef_sk/production/_ext/1164207549/arp.o
                0x9fc2efe8                TCPIP_ARP_Deinitialize

.text.TCPIP_ARP_EntryGet
                0x9fc2f07c       0x94
 .text.TCPIP_ARP_EntryGet
                0x9fc2f07c       0x94 build/udp_pic32mz_ef_sk/production/_ext/1164207549/arp.o
                0x9fc2f07c                TCPIP_ARP_EntryGet

.text.TCPIP_Helper_ProtectedSingleListNodeRemove
                0x9fc2f110       0x94
 .text.TCPIP_Helper_ProtectedSingleListNodeRemove
                0x9fc2f110       0x94 build/udp_pic32mz_ef_sk/production/_ext/1164207549/tcpip_helpers.o
                0x9fc2f110                TCPIP_Helper_ProtectedSingleListNodeRemove

.text._DRV_ETHMAC_LinkStateNegComplete
                0x9fc2f1a4       0x90
 .text._DRV_ETHMAC_LinkStateNegComplete
                0x9fc2f1a4       0x90 build/udp_pic32mz_ef_sk/production/_ext/1697634946/drv_ethmac.o

.text._DRV_ETHPHY_NegCompletePhaseAN_Complete
                0x9fc2f234       0x90
 .text._DRV_ETHPHY_NegCompletePhaseAN_Complete
                0x9fc2f234       0x90 build/udp_pic32mz_ef_sk/production/_ext/521481140/drv_ethphy.o

.text.TCPIP_Helper_ProtectedSingleListHeadRemove
                0x9fc2f2c4       0x90
 .text.TCPIP_Helper_ProtectedSingleListHeadRemove
                0x9fc2f2c4       0x90 build/udp_pic32mz_ef_sk/production/_ext/1164207549/tcpip_helpers.o
                0x9fc2f2c4                TCPIP_Helper_ProtectedSingleListHeadRemove

.text.TCPIP_Helper_ProtectedSingleListRemoveAll
                0x9fc2f354       0x90
 .text.TCPIP_Helper_ProtectedSingleListRemoveAll
                0x9fc2f354       0x90 build/udp_pic32mz_ef_sk/production/_ext/1164207549/tcpip_helpers.o
                0x9fc2f354                TCPIP_Helper_ProtectedSingleListRemoveAll

.text._TCPIPStackIpAddFromAnyNet
                0x9fc2f3e4       0x90
 .text._TCPIPStackIpAddFromAnyNet
                0x9fc2f3e4       0x90 build/udp_pic32mz_ef_sk/production/_ext/1164207549/tcpip_manager.o
                0x9fc2f3e4                _TCPIPStackIpAddFromAnyNet

.text.hexatob   0x9fc2f474       0x8c
 .text.hexatob  0x9fc2f474       0x8c build/udp_pic32mz_ef_sk/production/_ext/1886247299/helpers.o
                0x9fc2f474                hexatob

.text.TCPIP_UDP_Close
                0x9fc2f500       0x8c
 .text.TCPIP_UDP_Close
                0x9fc2f500       0x8c build/udp_pic32mz_ef_sk/production/_ext/1164207549/udp.o
                0x9fc2f500                TCPIP_UDP_Close

.text.rand      0x9fc2f58c       0x8c
 .text.rand     0x9fc2f58c       0x8c c:/program files (x86)/microchip/xc32/v1.42/bin/bin/../../lib/gcc/pic32mx/4.8.3/../../../../pic32mx/lib/fpu64\libc.a(rand.o)
                0x9fc2f58c                rand

.text.DRV_ETHMAC_LibClose
                0x9fc2f618       0x88
 .text.DRV_ETHMAC_LibClose
                0x9fc2f618       0x88 build/udp_pic32mz_ef_sk/production/_ext/1697634946/drv_ethmac_lib.o
                0x9fc2f618                DRV_ETHMAC_LibClose

.text.TCPIP_Helper_ProtectedSingleListTailAdd
                0x9fc2f6a0       0x88
 .text.TCPIP_Helper_ProtectedSingleListTailAdd
                0x9fc2f6a0       0x88 build/udp_pic32mz_ef_sk/production/_ext/1164207549/tcpip_helpers.o
                0x9fc2f6a0                TCPIP_Helper_ProtectedSingleListTailAdd

.text.APP_NVMOperation
                0x9fc2f728       0x84
 .text.APP_NVMOperation
                0x9fc2f728       0x84 build/udp_pic32mz_ef_sk/production/_ext/686445382/nvm.o
                0x9fc2f728                APP_NVMOperation

.text.DRV_ETHPHY_Open
                0x9fc2f7ac       0x84
 .text.DRV_ETHPHY_Open
                0x9fc2f7ac       0x84 build/udp_pic32mz_ef_sk/production/_ext/521481140/drv_ethphy.o
                0x9fc2f7ac                DRV_ETHPHY_Open

.text.DRV_ETHPHY_VendorSMIReadResultGet
                0x9fc2f830       0x84
 .text.DRV_ETHPHY_VendorSMIReadResultGet
                0x9fc2f830       0x84 build/udp_pic32mz_ef_sk/production/_ext/521481140/drv_ethphy.o
                0x9fc2f830                DRV_ETHPHY_VendorSMIReadResultGet

.text._DRV_TMR_ModuleObj
                0x9fc2f8b4       0x84
 .text._DRV_TMR_ModuleObj
                0x9fc2f8b4       0x84 build/udp_pic32mz_ef_sk/production/_ext/941160041/drv_tmr.o

.text.DRV_ETHPHY_SMIScanStart
                0x9fc2f938       0x80
 .text.DRV_ETHPHY_SMIScanStart
                0x9fc2f938       0x80 build/udp_pic32mz_ef_sk/production/_ext/521481140/drv_ethphy.o
                0x9fc2f938                DRV_ETHPHY_SMIScanStart

.text._DRV_ETHPHY_SetupPhaseNegotiate_SubPhase1
                0x9fc2f9b8       0x80
 .text._DRV_ETHPHY_SetupPhaseNegotiate_SubPhase1
                0x9fc2f9b8       0x80 build/udp_pic32mz_ef_sk/production/_ext/521481140/drv_ethphy.o

.text.DRV_ETHPHY_SMIRead
                0x9fc2fa38       0x7c
 .text.DRV_ETHPHY_SMIRead
                0x9fc2fa38       0x7c build/udp_pic32mz_ef_sk/production/_ext/521481140/drv_ethphy.o
                0x9fc2fa38                DRV_ETHPHY_SMIRead

.text._DRV_ETHPHY_SetupPhaseNegotiate_SubPhase5
                0x9fc2fab4       0x7c
 .text._DRV_ETHPHY_SetupPhaseNegotiate_SubPhase5
                0x9fc2fab4       0x7c build/udp_pic32mz_ef_sk/production/_ext/521481140/drv_ethphy.o

.text._UDPAllocateEphemeralPort
                0x9fc2fb30       0x7c
 .text._UDPAllocateEphemeralPort
                0x9fc2fb30       0x7c build/udp_pic32mz_ef_sk/production/_ext/1164207549/udp.o

.text.TCPIP_ARP_HandlerRegister
                0x9fc2fbac       0x7c
 .text.TCPIP_ARP_HandlerRegister
                0x9fc2fbac       0x7c build/udp_pic32mz_ef_sk/production/_ext/1164207549/arp.o
                0x9fc2fbac                TCPIP_ARP_HandlerRegister

.text.APP_CalculateCrc
                0x9fc2fc28       0x78
 .text.APP_CalculateCrc
                0x9fc2fc28       0x78 build/udp_pic32mz_ef_sk/production/_ext/686445382/bootloader.o
                0x9fc2fc28                APP_CalculateCrc

.text.DRV_ETHPHY_SMIScanDataGet
                0x9fc2fca0       0x78
 .text.DRV_ETHPHY_SMIScanDataGet
                0x9fc2fca0       0x78 build/udp_pic32mz_ef_sk/production/_ext/521481140/drv_ethphy.o
                0x9fc2fca0                DRV_ETHPHY_SMIScanDataGet

.text._DRV_ETHPHY_NegRestartPhaseRead
                0x9fc2fd18       0x78
 .text._DRV_ETHPHY_NegRestartPhaseRead
                0x9fc2fd18       0x78 build/udp_pic32mz_ef_sk/production/_ext/521481140/drv_ethphy.o

.text._DRV_ETHPHY_SetupPhaseNegotiate_SubPhase2
                0x9fc2fd90       0x78
 .text._DRV_ETHPHY_SetupPhaseNegotiate_SubPhase2
                0x9fc2fd90       0x78 build/udp_pic32mz_ef_sk/production/_ext/521481140/drv_ethphy.o

.text.TCPIP_Helper_ProtectedSingleListDeinitialize
                0x9fc2fe08       0x78
 .text.TCPIP_Helper_ProtectedSingleListDeinitialize
                0x9fc2fe08       0x78 build/udp_pic32mz_ef_sk/production/_ext/1164207549/tcpip_helpers.o
                0x9fc2fe08                TCPIP_Helper_ProtectedSingleListDeinitialize

.text._TCPIP_MacEventCB
                0x9fc2fe80       0x78
 .text._TCPIP_MacEventCB
                0x9fc2fe80       0x78 build/udp_pic32mz_ef_sk/production/_ext/1164207549/tcpip_manager.o

.text._TCPIPStackAnyNetLinked
                0x9fc01258       0x78
 .text._TCPIPStackAnyNetLinked
                0x9fc01258       0x78 build/udp_pic32mz_ef_sk/production/_ext/1164207549/tcpip_manager.o
                0x9fc01258                _TCPIPStackAnyNetLinked

.text.TCPIP_PKT_Initialize
                0x9fc012d0       0x78
 .text.TCPIP_PKT_Initialize
                0x9fc012d0       0x78 build/udp_pic32mz_ef_sk/production/_ext/1164207549/tcpip_packet.o
                0x9fc012d0                TCPIP_PKT_Initialize

.text.DRV_ETHMAC_PIC32MACConfigGet
                0x9fc01348       0x74
 .text.DRV_ETHMAC_PIC32MACConfigGet
                0x9fc01348       0x74 build/udp_pic32mz_ef_sk/production/_ext/1697634946/drv_ethmac.o
                0x9fc01348                DRV_ETHMAC_PIC32MACConfigGet

.text._DRV_ETHPHY_NegCompletePhaseRead1
                0x9fc013bc       0x74
 .text._DRV_ETHPHY_NegCompletePhaseRead1
                0x9fc013bc       0x74 build/udp_pic32mz_ef_sk/production/_ext/521481140/drv_ethphy.o

.text.TCPIP_Helper_StringToPowerMode
                0x9fc01430       0x74
 .text.TCPIP_Helper_StringToPowerMode
                0x9fc01430       0x74 build/udp_pic32mz_ef_sk/production/_ext/1164207549/tcpip_helpers.o
                0x9fc01430                TCPIP_Helper_StringToPowerMode

.text._TCPIPStackSignalHandlerRegister
                0x9fc014a4       0x74
 .text._TCPIPStackSignalHandlerRegister
                0x9fc014a4       0x74 build/udp_pic32mz_ef_sk/production/_ext/1164207549/tcpip_manager.o
                0x9fc014a4                _TCPIPStackSignalHandlerRegister

.text._TCPIP_PKT_SocketAlloc
                0x9fc01518       0x74
 .text._TCPIP_PKT_SocketAlloc
                0x9fc01518       0x74 build/udp_pic32mz_ef_sk/production/_ext/1164207549/tcpip_packet.o
                0x9fc01518                _TCPIP_PKT_SocketAlloc

.text.strncpy   0x9fc0158c       0x74
 .text.strncpy  0x9fc0158c       0x74 c:/program files (x86)/microchip/xc32/v1.42/bin/bin/../../lib/gcc/pic32mx/4.8.3/../../../../pic32mx/lib/fpu64\libc.a(strncpy.o)
                0x9fc0158c                strncpy

.text._EnetPoolFreeDcptList
                0x9fc01110       0x70
 .text._EnetPoolFreeDcptList
                0x9fc01110       0x70 build/udp_pic32mz_ef_sk/production/_ext/1697634946/drv_ethmac_lib.o

.text.DRV_ETHPHY_SMIScanStop
                0x9fc01190       0x70
 .text.DRV_ETHPHY_SMIScanStop
                0x9fc01190       0x70 build/udp_pic32mz_ef_sk/production/_ext/521481140/drv_ethphy.o
                0x9fc01190                DRV_ETHPHY_SMIScanStop

.text._DRV_ETHPHY_LinkStatPhaseRefresh
                0x9fc01600       0x70
 .text._DRV_ETHPHY_LinkStatPhaseRefresh
                0x9fc01600       0x70 build/udp_pic32mz_ef_sk/production/_ext/521481140/drv_ethphy.o

.text._UDPFreeTxResources
                0x9fc01670       0x70
 .text._UDPFreeTxResources
                0x9fc01670       0x70 build/udp_pic32mz_ef_sk/production/_ext/1164207549/udp.o

.text._UDPClose
                0x9fc016e0       0x70
 .text._UDPClose
                0x9fc016e0       0x70 build/udp_pic32mz_ef_sk/production/_ext/1164207549/udp.o

.text._TCPIP_HEAP_Delete
                0x9fc01750       0x70
 .text._TCPIP_HEAP_Delete
                0x9fc01750       0x70 build/udp_pic32mz_ef_sk/production/_ext/1164207549/tcpip_heap_internal.o

.text._ARPSetEntry
                0x9fc017c0       0x70
 .text._ARPSetEntry
                0x9fc017c0       0x70 build/udp_pic32mz_ef_sk/production/_ext/1164207549/arp.o

.text._MacRxFreeCallback
                0x9fc01830       0x6c
 .text._MacRxFreeCallback
                0x9fc01830       0x6c build/udp_pic32mz_ef_sk/production/_ext/1697634946/drv_ethmac.o

.text._DRV_TMR_Resume
                0x9fc0189c       0x68
 .text._DRV_TMR_Resume
                0x9fc0189c       0x68 build/udp_pic32mz_ef_sk/production/_ext/941160041/drv_tmr.o

.text.SYS_RANDOM_Initialize
                0x9fc01904       0x68
 .text.SYS_RANDOM_Initialize
                0x9fc01904       0x68 build/udp_pic32mz_ef_sk/production/_ext/470001640/sys_random.o
                0x9fc01904                SYS_RANDOM_Initialize

.text.TCPIP_ARP_HashEntryDelete
                0x9fc0196c       0x68
 .text.TCPIP_ARP_HashEntryDelete
                0x9fc0196c       0x68 build/udp_pic32mz_ef_sk/production/_ext/1164207549/arp.o
                0x9fc0196c                TCPIP_ARP_HashEntryDelete

.text.TCPIP_STACK_IsBcastAddress
                0x9fc019d4       0x68
 .text.TCPIP_STACK_IsBcastAddress
                0x9fc019d4       0x68 build/udp_pic32mz_ef_sk/production/_ext/1164207549/tcpip_manager.o
                0x9fc019d4                TCPIP_STACK_IsBcastAddress

.text._TCPIPStackModuleRxInsert
                0x9fc01a3c       0x68
 .text._TCPIPStackModuleRxInsert
                0x9fc01a3c       0x68 build/udp_pic32mz_ef_sk/production/_ext/1164207549/tcpip_manager.o
                0x9fc01a3c                _TCPIPStackModuleRxInsert

.rodata         0x9fc01aa4       0x68
 .rodata        0x9fc01aa4       0x68 build/udp_pic32mz_ef_sk/production/_ext/1164207549/tcpip_manager.o

.text._MacTxFreeCallback
                0x9fc01b0c       0x64
 .text._MacTxFreeCallback
                0x9fc01b0c       0x64 build/udp_pic32mz_ef_sk/production/_ext/1697634946/drv_ethmac.o

.text.DRV_TMR_Start
                0x9fc01b70       0x64
 .text.DRV_TMR_Start
                0x9fc01b70       0x64 build/udp_pic32mz_ef_sk/production/_ext/941160041/drv_tmr.o
                0x9fc01b70                DRV_TMR_Start

.text.TCPIP_IPV4_Cleanup
                0x9fc01bd4       0x64
 .text.TCPIP_IPV4_Cleanup
                0x9fc01bd4       0x64 build/udp_pic32mz_ef_sk/production/_ext/1164207549/ipv4.o

.text.TCPIP_UDP_GetIsReady
                0x9fc01c38       0x64
 .text.TCPIP_UDP_GetIsReady
                0x9fc01c38       0x64 build/udp_pic32mz_ef_sk/production/_ext/1164207549/udp.o
                0x9fc01c38                TCPIP_UDP_GetIsReady

.text.TCPIP_UDP_IsConnected
                0x9fc01c9c       0x60
 .text.TCPIP_UDP_IsConnected
                0x9fc01c9c       0x60 build/udp_pic32mz_ef_sk/production/_ext/1164207549/udp.o
                0x9fc01c9c                TCPIP_UDP_IsConnected

.text.TCPIP_OAHASH_EntriesRemoveAll
                0x9fc01cfc       0x60
 .text.TCPIP_OAHASH_EntriesRemoveAll
                0x9fc01cfc       0x60 build/udp_pic32mz_ef_sk/production/_ext/1164207549/oahash.o
                0x9fc01cfc                TCPIP_OAHASH_EntriesRemoveAll

.rodata         0x9fc01d5c       0x60
 .rodata        0x9fc01d5c       0x60 build/udp_pic32mz_ef_sk/production/_ext/1164207549/tcpip_helpers.o

.text._MacTxDiscardQueues
                0x9fc01dbc       0x5c
 .text._MacTxDiscardQueues
                0x9fc01dbc       0x5c build/udp_pic32mz_ef_sk/production/_ext/1697634946/drv_ethmac.o

.text.DRV_ETHPHY_LinkStatusGet
                0x9fc01e18       0x5c
 .text.DRV_ETHPHY_LinkStatusGet
                0x9fc01e18       0x5c build/udp_pic32mz_ef_sk/production/_ext/521481140/drv_ethphy.o
                0x9fc01e18                DRV_ETHPHY_LinkStatusGet

.text.DRV_ETHPHY_NegotiationResultGet
                0x9fc01e74       0x5c
 .text.DRV_ETHPHY_NegotiationResultGet
                0x9fc01e74       0x5c build/udp_pic32mz_ef_sk/production/_ext/521481140/drv_ethphy.o
                0x9fc01e74                DRV_ETHPHY_NegotiationResultGet

.text._DRV_ETHPHY_ClientOpReset
                0x9fc01ed0       0x5c
 .text._DRV_ETHPHY_ClientOpReset
                0x9fc01ed0       0x5c build/udp_pic32mz_ef_sk/production/_ext/521481140/drv_ethphy.o

.text._DRV_ETHPHY_ClientOpLinkStat
                0x9fc01f2c       0x5c
 .text._DRV_ETHPHY_ClientOpLinkStat
                0x9fc01f2c       0x5c build/udp_pic32mz_ef_sk/production/_ext/521481140/drv_ethphy.o

.text._DRV_ETHPHY_ClientOpNegResult
                0x9fc01f88       0x5c
 .text._DRV_ETHPHY_ClientOpNegResult
                0x9fc01f88       0x5c build/udp_pic32mz_ef_sk/production/_ext/521481140/drv_ethphy.o

.text._DRV_ETHPHY_ClientOpNegComplete
                0x9fc01fe4       0x5c
 .text._DRV_ETHPHY_ClientOpNegComplete
                0x9fc01fe4       0x5c build/udp_pic32mz_ef_sk/production/_ext/521481140/drv_ethphy.o

.text._DRV_ETHPHY_ClientOpNegRestart
                0x9fc02040       0x5c
 .text._DRV_ETHPHY_ClientOpNegRestart
                0x9fc02040       0x5c build/udp_pic32mz_ef_sk/production/_ext/521481140/drv_ethphy.o

.text._DRV_ETHPHY_ClientOpSmiRead
                0x9fc0209c       0x5c
 .text._DRV_ETHPHY_ClientOpSmiRead
                0x9fc0209c       0x5c build/udp_pic32mz_ef_sk/production/_ext/521481140/drv_ethphy.o

.text._DRV_ETHPHY_SetupPhaseNegotiate
                0x9fc020f8       0x5c
 .text._DRV_ETHPHY_SetupPhaseNegotiate
                0x9fc020f8       0x5c build/udp_pic32mz_ef_sk/production/_ext/521481140/drv_ethphy.o

.text.DRV_TMR_Open
                0x9fc02154       0x5c
 .text.DRV_TMR_Open
                0x9fc02154       0x5c build/udp_pic32mz_ef_sk/production/_ext/941160041/drv_tmr.o
                0x9fc02154                DRV_TMR_Open

.text.DRV_TMR_AlarmEnable
                0x9fc021b0       0x5c
 .text.DRV_TMR_AlarmEnable
                0x9fc021b0       0x5c build/udp_pic32mz_ef_sk/production/_ext/941160041/drv_tmr.o
                0x9fc021b0                DRV_TMR_AlarmEnable

.text._TCPIP_HEAP_BufferMapNonCached
                0x9fc0220c       0x5c
 .text._TCPIP_HEAP_BufferMapNonCached
                0x9fc0220c       0x5c build/udp_pic32mz_ef_sk/production/_ext/1164207549/tcpip_heap_alloc.o
                0x9fc0220c                _TCPIP_HEAP_BufferMapNonCached

.text.fnv_32_hash
                0x9fc02268       0x5c
 .text.fnv_32_hash
                0x9fc02268       0x5c build/udp_pic32mz_ef_sk/production/_ext/1164207549/hash_fnv.o
                0x9fc02268                fnv_32_hash

.text.TCPIP_Helper_ProtectedSingleListLock
                0x9fc022c4       0x5c
 .text.TCPIP_Helper_ProtectedSingleListLock
                0x9fc022c4       0x5c build/udp_pic32mz_ef_sk/production/_ext/1164207549/tcpip_helpers.o
                0x9fc022c4                TCPIP_Helper_ProtectedSingleListLock

.text._vsnprintf_cdnopsuxX
                0x9fc02320       0x5c
 .text._vsnprintf_cdnopsuxX
                0x9fc02320       0x5c c:/program files (x86)/microchip/xc32/v1.42/bin/bin/../../lib/gcc/pic32mx/4.8.3/../../../../pic32mx/lib/fpu64\libc.a(vsnprintf_cdnopsuxX.eo)
                0x9fc02320                _vsnprintf_cdnopsuxX

.text.SYS_DEVCON_SystemUnlock
                0x9fc0237c       0x58
 .text.SYS_DEVCON_SystemUnlock
                0x9fc0237c       0x58 build/udp_pic32mz_ef_sk/production/_ext/2092611130/sys_devcon.o
                0x9fc0237c                SYS_DEVCON_SystemUnlock

.text.TCPIP_STACK_Init
                0x9fc023d4       0x58
 .text.TCPIP_STACK_Init
                0x9fc023d4       0x58 build/udp_pic32mz_ef_sk/production/_ext/2145045400/system_init.o
                0x9fc023d4                TCPIP_STACK_Init

.text.DRV_ETHMAC_PIC32MACOpen
                0x9fc0242c       0x58
 .text.DRV_ETHMAC_PIC32MACOpen
                0x9fc0242c       0x58 build/udp_pic32mz_ef_sk/production/_ext/1697634946/drv_ethmac.o
                0x9fc0242c                DRV_ETHMAC_PIC32MACOpen

.text._DRV_ETHPHY_ClientOpSetup
                0x9fc02484       0x58
 .text._DRV_ETHPHY_ClientOpSetup
                0x9fc02484       0x58 build/udp_pic32mz_ef_sk/production/_ext/521481140/drv_ethphy.o

.text.TCPIP_IPV4_CheckPktTx
                0x9fc024dc       0x58
 .text.TCPIP_IPV4_CheckPktTx
                0x9fc024dc       0x58 build/udp_pic32mz_ef_sk/production/_ext/1164207549/ipv4.o

.text.TCPIP_STACK_NetByAddress
                0x9fc02534       0x58
 .text.TCPIP_STACK_NetByAddress
                0x9fc02534       0x58 build/udp_pic32mz_ef_sk/production/_ext/1164207549/tcpip_manager.o
                0x9fc02534                TCPIP_STACK_NetByAddress

.text.TCPIP_Notification_Remove
                0x9fc0258c       0x58
 .text.TCPIP_Notification_Remove
                0x9fc0258c       0x58 build/udp_pic32mz_ef_sk/production/_ext/1164207549/tcpip_notify.o
                0x9fc0258c                TCPIP_Notification_Remove

.text.main_entry
                0x9fc025e4       0x54
 .text.main_entry
                0x9fc025e4       0x54 c:/program files (x86)/microchip/xc32/v1.42/bin/bin/../../lib/gcc/pic32mx/4.8.3/../../../../pic32mx/lib/./proc/32MZ2048EFH144/crt0_mips32r2.o
                0x9fc02618                __crt0_exit

.text.APP_ForceBootloaderCheck
                0x9fc02638       0x54
 .text.APP_ForceBootloaderCheck
                0x9fc02638       0x54 build/udp_pic32mz_ef_sk/production/_ext/1360937237/app.o
                0x9fc02638                APP_ForceBootloaderCheck

.text.DRV_ETHMAC_PIC32MACLinkCheck
                0x9fc0268c       0x54
 .text.DRV_ETHMAC_PIC32MACLinkCheck
                0x9fc0268c       0x54 build/udp_pic32mz_ef_sk/production/_ext/1697634946/drv_ethmac.o
                0x9fc0268c                DRV_ETHMAC_PIC32MACLinkCheck

.text._DRV_ETHMAC_LinkStateStartLink
                0x9fc026e0       0x54
 .text._DRV_ETHMAC_LinkStateStartLink
                0x9fc026e0       0x54 build/udp_pic32mz_ef_sk/production/_ext/1697634946/drv_ethmac.o

.text._EnetDescriptorsCount
                0x9fc02734       0x54
 .text._EnetDescriptorsCount
                0x9fc02734       0x54 build/udp_pic32mz_ef_sk/production/_ext/1697634946/drv_ethmac_lib.o

.text.SYS_INT_SourceDisable
                0x9fc02788       0x54
 .text.SYS_INT_SourceDisable
                0x9fc02788       0x54 build/udp_pic32mz_ef_sk/production/_ext/1042686532/sys_int_pic32.o
                0x9fc02788                SYS_INT_SourceDisable

.text.SYS_CLK_PeripheralFrequencyGet
                0x9fc027dc       0x50
 .text.SYS_CLK_PeripheralFrequencyGet
                0x9fc027dc       0x50 build/udp_pic32mz_ef_sk/production/_ext/1991045727/sys_clk_pic32mz.o
                0x9fc027dc                SYS_CLK_PeripheralFrequencyGet

.text.APP_NVMQuadWordWrite
                0x9fc0282c       0x50
 .text.APP_NVMQuadWordWrite
                0x9fc0282c       0x50 build/udp_pic32mz_ef_sk/production/_ext/686445382/nvm.o
                0x9fc0282c                APP_NVMQuadWordWrite

.text._XtlEventsTcp2Eth
                0x9fc0287c       0x50
 .text._XtlEventsTcp2Eth
                0x9fc0287c       0x50 build/udp_pic32mz_ef_sk/production/_ext/1697634946/drv_ethmac.o

.text.DRV_ETHPHY_SMIScanStatusGet
                0x9fc028cc       0x50
 .text.DRV_ETHPHY_SMIScanStatusGet
                0x9fc028cc       0x50 build/udp_pic32mz_ef_sk/production/_ext/521481140/drv_ethphy.o
                0x9fc028cc                DRV_ETHPHY_SMIScanStatusGet

.text.DRV_ETHPHY_HWConfigFlagsGet
                0x9fc0291c       0x50
 .text.DRV_ETHPHY_HWConfigFlagsGet
                0x9fc0291c       0x50 build/udp_pic32mz_ef_sk/production/_ext/521481140/drv_ethphy.o
                0x9fc0291c                DRV_ETHPHY_HWConfigFlagsGet

.text._DRV_ETHPHY_NegResultPhase_ANLPAD
                0x9fc0296c       0x50
 .text._DRV_ETHPHY_NegResultPhase_ANLPAD
                0x9fc0296c       0x50 build/udp_pic32mz_ef_sk/production/_ext/521481140/drv_ethphy.o

.text._DRV_ETHPHY_NegResultPhase_ANEXP
                0x9fc029bc       0x50
 .text._DRV_ETHPHY_NegResultPhase_ANEXP
                0x9fc029bc       0x50 build/udp_pic32mz_ef_sk/production/_ext/521481140/drv_ethphy.o

.text._DRV_TMR_Suspend
                0x9fc02a0c       0x50
 .text._DRV_TMR_Suspend
                0x9fc02a0c       0x50 build/udp_pic32mz_ef_sk/production/_ext/941160041/drv_tmr.o

.text.SYS_TMR_ObjectDelete
                0x9fc02a5c       0x50
 .text.SYS_TMR_ObjectDelete
                0x9fc02a5c       0x50 build/udp_pic32mz_ef_sk/production/_ext/2110151058/sys_tmr.o
                0x9fc02a5c                SYS_TMR_ObjectDelete

.text.TCPIP_Helper_ProtectedSingleListInitialize
                0x9fc02aac       0x50
 .text.TCPIP_Helper_ProtectedSingleListInitialize
                0x9fc02aac       0x50 build/udp_pic32mz_ef_sk/production/_ext/1164207549/tcpip_helpers.o
                0x9fc02aac                TCPIP_Helper_ProtectedSingleListInitialize

.text.TCPIP_Helper_ProtectedSingleListUnlock
                0x9fc02afc       0x50
 .text.TCPIP_Helper_ProtectedSingleListUnlock
                0x9fc02afc       0x50 build/udp_pic32mz_ef_sk/production/_ext/1164207549/tcpip_helpers.o
                0x9fc02afc                TCPIP_Helper_ProtectedSingleListUnlock

.text._TCPIPStackModuleSignalGet
                0x9fc02b4c       0x50
 .text._TCPIPStackModuleSignalGet
                0x9fc02b4c       0x50 build/udp_pic32mz_ef_sk/production/_ext/1164207549/tcpip_manager.o
                0x9fc02b4c                _TCPIPStackModuleSignalGet

.text.TCPIP_Notification_Add
                0x9fc02b9c       0x50
 .text.TCPIP_Notification_Add
                0x9fc02b9c       0x50 build/udp_pic32mz_ef_sk/production/_ext/1164207549/tcpip_notify.o
                0x9fc02b9c                TCPIP_Notification_Add

.text._TCPIP_PKT_PacketAcknowledge
                0x9fc02bec       0x50
 .text._TCPIP_PKT_PacketAcknowledge
                0x9fc02bec       0x50 build/udp_pic32mz_ef_sk/production/_ext/1164207549/tcpip_packet.o
                0x9fc02bec                _TCPIP_PKT_PacketAcknowledge

.text.sbrk      0x9fc02c3c       0x50
 .text.sbrk     0x9fc02c3c       0x50 c:/program files (x86)/microchip/xc32/v1.42/bin/bin/../../lib/gcc/pic32mx/4.8.3/../../../../pic32mx/lib/fpu64\libpic32.a(sbrk.o)
                0x9fc02c3c                sbrk

.text.SYS_RESET_SoftwareReset
                0x9fc02c8c       0x4c
 .text.SYS_RESET_SoftwareReset
                0x9fc02c8c       0x4c build/udp_pic32mz_ef_sk/production/_ext/1532728844/sys_reset.o
                0x9fc02c8c                SYS_RESET_SoftwareReset

.text._MACTxPacketAckCallback
                0x9fc02cd8       0x4c
 .text._MACTxPacketAckCallback
                0x9fc02cd8       0x4c build/udp_pic32mz_ef_sk/production/_ext/1697634946/drv_ethmac.o

.text.DRV_ETHPHY_Reset
                0x9fc02d24       0x4c
 .text.DRV_ETHPHY_Reset
                0x9fc02d24       0x4c build/udp_pic32mz_ef_sk/production/_ext/521481140/drv_ethphy.o
                0x9fc02d24                DRV_ETHPHY_Reset

.text.DRV_ETHPHY_NegotiationIsComplete
                0x9fc02d70       0x4c
 .text.DRV_ETHPHY_NegotiationIsComplete
                0x9fc02d70       0x4c build/udp_pic32mz_ef_sk/production/_ext/521481140/drv_ethphy.o
                0x9fc02d70                DRV_ETHPHY_NegotiationIsComplete

.text._DRV_PHY_NegCompleteSetOperResult
                0x9fc02dbc       0x4c
 .text._DRV_PHY_NegCompleteSetOperResult
                0x9fc02dbc       0x4c build/udp_pic32mz_ef_sk/production/_ext/521481140/drv_ethphy.o

.text._DRV_ETHPHY_SetupPhaseNegotiate_SubPhase4
                0x9fc02e08       0x4c
 .text._DRV_ETHPHY_SetupPhaseNegotiate_SubPhase4
                0x9fc02e08       0x4c build/udp_pic32mz_ef_sk/production/_ext/521481140/drv_ethphy.o

.text._TCPIP_HEAP_Calloc
                0x9fc02e54       0x4c
 .text._TCPIP_HEAP_Calloc
                0x9fc02e54       0x4c build/udp_pic32mz_ef_sk/production/_ext/1164207549/tcpip_heap_internal.o

.text._ARPRemoveCacheEntries
                0x9fc02ea0       0x4c
 .text._ARPRemoveCacheEntries
                0x9fc02ea0       0x4c build/udp_pic32mz_ef_sk/production/_ext/1164207549/arp.o

.text.TCPIP_Notification_RemoveAll
                0x9fc02eec       0x4c
 .text.TCPIP_Notification_RemoveAll
                0x9fc02eec       0x4c build/udp_pic32mz_ef_sk/production/_ext/1164207549/tcpip_notify.o
                0x9fc02eec                TCPIP_Notification_RemoveAll

.text.calloc    0x9fc02f38       0x4c
 .text.calloc   0x9fc02f38       0x4c c:/program files (x86)/microchip/xc32/v1.42/bin/bin/../../lib/gcc/pic32mx/4.8.3/../../../../pic32mx/lib/fpu64\libc.a(calloc.o)
                0x9fc02f38                calloc

.text.SYS_CLK_SecondaryOscillatorEnable
                0x9fc02f84       0x48
 .text.SYS_CLK_SecondaryOscillatorEnable
                0x9fc02f84       0x48 build/udp_pic32mz_ef_sk/production/_ext/1991045727/sys_clk_pic32mz.o
                0x9fc02f84                SYS_CLK_SecondaryOscillatorEnable

.text.SYS_DEVCON_SystemLock
                0x9fc02fcc       0x48
 .text.SYS_DEVCON_SystemLock
                0x9fc02fcc       0x48 build/udp_pic32mz_ef_sk/production/_ext/2092611130/sys_devcon.o
                0x9fc02fcc                SYS_DEVCON_SystemLock

.text.DRV_ETHPHY_Reinitialize
                0x9fc03014       0x48
 .text.DRV_ETHPHY_Reinitialize
                0x9fc03014       0x48 build/udp_pic32mz_ef_sk/production/_ext/521481140/drv_ethphy.o
                0x9fc03014                DRV_ETHPHY_Reinitialize

.text.DRV_ETHPHY_RestartNegotiation
                0x9fc0305c       0x48
 .text.DRV_ETHPHY_RestartNegotiation
                0x9fc0305c       0x48 build/udp_pic32mz_ef_sk/production/_ext/521481140/drv_ethphy.o
                0x9fc0305c                DRV_ETHPHY_RestartNegotiation

.text._DRV_ETHPHY_NegRestartPhaseWrite
                0x9fc030a4       0x48
 .text._DRV_ETHPHY_NegRestartPhaseWrite
                0x9fc030a4       0x48 build/udp_pic32mz_ef_sk/production/_ext/521481140/drv_ethphy.o

.text._DRV_ETHPHY_ClientOpSmiWrite
                0x9fc030ec       0x48
 .text._DRV_ETHPHY_ClientOpSmiWrite
                0x9fc030ec       0x48 build/udp_pic32mz_ef_sk/production/_ext/521481140/drv_ethphy.o

.text.DRV_TMR_Close
                0x9fc03134       0x48
 .text.DRV_TMR_Close
                0x9fc03134       0x48 build/udp_pic32mz_ef_sk/production/_ext/941160041/drv_tmr.o
                0x9fc03134                DRV_TMR_Close

.text._UDPIsAvailablePort
                0x9fc0317c       0x48
 .text._UDPIsAvailablePort
                0x9fc0317c       0x48 build/udp_pic32mz_ef_sk/production/_ext/1164207549/udp.o

.text.TCPIP_HEAP_Create
                0x9fc031c4       0x48
 .text.TCPIP_HEAP_Create
                0x9fc031c4       0x48 build/udp_pic32mz_ef_sk/production/_ext/1164207549/tcpip_heap_alloc.o
                0x9fc031c4                TCPIP_HEAP_Create

.text.TCPIP_ARP_HandlerDeRegister
                0x9fc0320c       0x48
 .text.TCPIP_ARP_HandlerDeRegister
                0x9fc0320c       0x48 build/udp_pic32mz_ef_sk/production/_ext/1164207549/arp.o
                0x9fc0320c                TCPIP_ARP_HandlerDeRegister

.text.TCPIP_Helper_SingleListAppend
                0x9fc03254       0x48
 .text.TCPIP_Helper_SingleListAppend
                0x9fc03254       0x48 build/udp_pic32mz_ef_sk/production/_ext/1164207549/tcpip_helpers.o
                0x9fc03254                TCPIP_Helper_SingleListAppend

.text.TCPIP_STACK_IPAddToNet
                0x9fc0329c       0x48
 .text.TCPIP_STACK_IPAddToNet
                0x9fc0329c       0x48 build/udp_pic32mz_ef_sk/production/_ext/1164207549/tcpip_manager.o
                0x9fc0329c                TCPIP_STACK_IPAddToNet

.text._bootstrap_exception_handler
                0x9fc032e4       0x48
 .text._bootstrap_exception_handler
                0x9fc032e4       0x48 c:/program files (x86)/microchip/xc32/v1.42/bin/bin/../../lib/gcc/pic32mx/4.8.3/../../../../pic32mx/lib/fpu64\libpic32.a(default-bootstrap-exception-handler.o)
                0x9fc032e4                _bootstrap_exception_handler

.text._cache_err_exception_handler
                0x9fc0332c       0x48
 .text._cache_err_exception_handler
                0x9fc0332c       0x48 c:/program files (x86)/microchip/xc32/v1.42/bin/bin/../../lib/gcc/pic32mx/4.8.3/../../../../pic32mx/lib/fpu64\libpic32.a(default-cache-err-exception-handler.o)
                0x9fc0332c                _cache_err_exception_handler

.text._simple_tlb_refill_exception_handler
                0x9fc03374       0x48
 .text._simple_tlb_refill_exception_handler
                0x9fc03374       0x48 c:/program files (x86)/microchip/xc32/v1.42/bin/bin/../../lib/gcc/pic32mx/4.8.3/../../../../pic32mx/lib/fpu64\libpic32.a(default-simple-tlb-refill-exception-handler.o)
                0x9fc03374                _simple_tlb_refill_exception_handler

.text.BSP_SwitchStateGet
                0x9fc033bc       0x44
 .text.BSP_SwitchStateGet
                0x9fc033bc       0x44 build/udp_pic32mz_ef_sk/production/_ext/938613576/bsp.o
                0x9fc033bc                BSP_SwitchStateGet

.text.DRV_ETHPHY_Tasks
                0x9fc03400       0x44
 .text.DRV_ETHPHY_Tasks
                0x9fc03400       0x44 build/udp_pic32mz_ef_sk/production/_ext/521481140/drv_ethphy.o
                0x9fc03400                DRV_ETHPHY_Tasks

.text._SwapARPPacket
                0x9fc03444       0x44
 .text._SwapARPPacket
                0x9fc03444       0x44 build/udp_pic32mz_ef_sk/production/_ext/1164207549/arp.o

.text._TCPIP_STACK_TickHandler
                0x9fc03488       0x44
 .text._TCPIP_STACK_TickHandler
                0x9fc03488       0x44 build/udp_pic32mz_ef_sk/production/_ext/1164207549/tcpip_manager.o

.text.TCPIP_STACK_NetIsBcastAddress
                0x9fc034cc       0x44
 .text.TCPIP_STACK_NetIsBcastAddress
                0x9fc034cc       0x44 build/udp_pic32mz_ef_sk/production/_ext/1164207549/tcpip_manager.o
                0x9fc034cc                TCPIP_STACK_NetIsBcastAddress

.text           0x9fc03510       0x44
 .text          0x9fc03510       0x44 c:/program files (x86)/microchip/xc32/v1.42/bin/bin/../../lib/gcc/pic32mx/4.8.3/../../../../pic32mx/lib/fpu64\pic32_software_reset.o
                0x9fc03510                __pic32_software_reset

.text.SYS_Tasks
                0x9fc03554       0x40
 .text.SYS_Tasks
                0x9fc03554       0x40 build/udp_pic32mz_ef_sk/production/_ext/2145045400/system_tasks.o
                0x9fc03554                SYS_Tasks

.text._DRV_ETHPHY_NegCompletePhaseResultNoWait
                0x9fc03594       0x40
 .text._DRV_ETHPHY_NegCompletePhaseResultNoWait
                0x9fc03594       0x40 build/udp_pic32mz_ef_sk/production/_ext/521481140/drv_ethphy.o

.text._UDPFreeRxQueue
                0x9fc035d4       0x40
 .text._UDPFreeRxQueue
                0x9fc035d4       0x40 build/udp_pic32mz_ef_sk/production/_ext/1164207549/udp.o

.rodata         0x9fc03614       0x3c
 .rodata        0x9fc03614       0x3c build/udp_pic32mz_ef_sk/production/_ext/938613576/bsp.o

.text._general_exception_handler
                0x9fc03650       0x3c
 .text._general_exception_handler
                0x9fc03650       0x3c build/udp_pic32mz_ef_sk/production/_ext/2145045400/system_exceptions.o
                0x9fc03650                _general_exception_handler

.text.APP_Tasks
                0x9fc0368c       0x3c
 .text.APP_Tasks
                0x9fc0368c       0x3c build/udp_pic32mz_ef_sk/production/_ext/1360937237/app.o
                0x9fc0368c                APP_Tasks

.text._DRV_ETHMAC_LinkStateDown
                0x9fc036c8       0x3c
 .text._DRV_ETHMAC_LinkStateDown
                0x9fc036c8       0x3c build/udp_pic32mz_ef_sk/production/_ext/1697634946/drv_ethmac.o

.text.DRV_ETHMAC_SingleListHeadRemove
                0x9fc03704       0x3c
 .text.DRV_ETHMAC_SingleListHeadRemove
                0x9fc03704       0x3c build/udp_pic32mz_ef_sk/production/_ext/1697634946/drv_ethmac_lib.o
                0x9fc03704                DRV_ETHMAC_SingleListHeadRemove

.text._UDPTxPktValid
                0x9fc03740       0x3c
 .text._UDPTxPktValid
                0x9fc03740       0x3c build/udp_pic32mz_ef_sk/production/_ext/1164207549/udp.o

.text._ARPTxAckFnc
                0x9fc0377c       0x3c
 .text._ARPTxAckFnc
                0x9fc0377c       0x3c build/udp_pic32mz_ef_sk/production/_ext/1164207549/arp.o

.text.TCPIP_ARP_HashKeyHash
                0x9fc037b8       0x3c
 .text.TCPIP_ARP_HashKeyHash
                0x9fc037b8       0x3c build/udp_pic32mz_ef_sk/production/_ext/1164207549/arp.o
                0x9fc037b8                TCPIP_ARP_HashKeyHash

.text.TCPIP_OAHASH_Initialize
                0x9fc037f4       0x3c
 .text.TCPIP_OAHASH_Initialize
                0x9fc037f4       0x3c build/udp_pic32mz_ef_sk/production/_ext/1164207549/oahash.o
                0x9fc037f4                TCPIP_OAHASH_Initialize

.text.TCPIP_Helper_SingleListHeadRemove
                0x9fc03830       0x3c
 .text.TCPIP_Helper_SingleListHeadRemove
                0x9fc03830       0x3c build/udp_pic32mz_ef_sk/production/_ext/1164207549/tcpip_helpers.o
                0x9fc03830                TCPIP_Helper_SingleListHeadRemove

.text._TCPIPSignalEntryNotify
                0x9fc0386c       0x3c
 .text._TCPIPSignalEntryNotify
                0x9fc0386c       0x3c build/udp_pic32mz_ef_sk/production/_ext/1164207549/tcpip_manager.o

.text.TCPIP_STACK_IndexToNet
                0x9fc038a8       0x3c
 .text.TCPIP_STACK_IndexToNet
                0x9fc038a8       0x3c build/udp_pic32mz_ef_sk/production/_ext/1164207549/tcpip_manager.o
                0x9fc038a8                TCPIP_STACK_IndexToNet

.text._TCPIPStackSetConfigAddress
                0x9fc038e4       0x3c
 .text._TCPIPStackSetConfigAddress
                0x9fc038e4       0x3c build/udp_pic32mz_ef_sk/production/_ext/1164207549/tcpip_manager.o
                0x9fc038e4                _TCPIPStackSetConfigAddress

.text.TCPIP_STACK_Deinitialize
                0x9fc03920       0x3c
 .text.TCPIP_STACK_Deinitialize
                0x9fc03920       0x3c build/udp_pic32mz_ef_sk/production/_ext/1164207549/tcpip_manager.o
                0x9fc03920                TCPIP_STACK_Deinitialize

.text._TCPIPStackPacketTx
                0x9fc0395c       0x3c
 .text._TCPIPStackPacketTx
                0x9fc0395c       0x3c build/udp_pic32mz_ef_sk/production/_ext/1164207549/tcpip_manager.o
                0x9fc0395c                _TCPIPStackPacketTx

.text.BSP_Initialize
                0x9fc03998       0x38
 .text.BSP_Initialize
                0x9fc03998       0x38 build/udp_pic32mz_ef_sk/production/_ext/938613576/bsp.o
                0x9fc03998                BSP_Initialize

.text.DRV_ETHMAC_LibDescriptorGetBuffer
                0x9fc039d0       0x38
 .text.DRV_ETHMAC_LibDescriptorGetBuffer
                0x9fc039d0       0x38 build/udp_pic32mz_ef_sk/production/_ext/1697634946/drv_ethmac_lib.o
                0x9fc039d0                DRV_ETHMAC_LibDescriptorGetBuffer

.text.DRV_ETHMAC_LibRxPendingBuffersGet
                0x9fc03a08       0x38
 .text.DRV_ETHMAC_LibRxPendingBuffersGet
                0x9fc03a08       0x38 build/udp_pic32mz_ef_sk/production/_ext/1697634946/drv_ethmac_lib.o
                0x9fc03a08                DRV_ETHMAC_LibRxPendingBuffersGet

.text.DRV_ETHMAC_LibRxScheduledBuffersGet
                0x9fc03a40       0x38
 .text.DRV_ETHMAC_LibRxScheduledBuffersGet
                0x9fc03a40       0x38 build/udp_pic32mz_ef_sk/production/_ext/1697634946/drv_ethmac_lib.o
                0x9fc03a40                DRV_ETHMAC_LibRxScheduledBuffersGet

.text.DRV_ETHMAC_LibTxPendingBuffersGet
                0x9fc03a78       0x38
 .text.DRV_ETHMAC_LibTxPendingBuffersGet
                0x9fc03a78       0x38 build/udp_pic32mz_ef_sk/production/_ext/1697634946/drv_ethmac_lib.o
                0x9fc03a78                DRV_ETHMAC_LibTxPendingBuffersGet

.text._DRV_PHY_SMIReadStart
                0x9fc03ab0       0x38
 .text._DRV_PHY_SMIReadStart
                0x9fc03ab0       0x38 build/udp_pic32mz_ef_sk/production/_ext/521481140/drv_ethphy.o

.text._DRV_PHY_SMIWriteStart
                0x9fc03ae8       0x38
 .text._DRV_PHY_SMIWriteStart
                0x9fc03ae8       0x38 build/udp_pic32mz_ef_sk/production/_ext/521481140/drv_ethphy.o

.text._DRV_ETHPHY_ResetPhaseIdle
                0x9fc03b20       0x38
 .text._DRV_ETHPHY_ResetPhaseIdle
                0x9fc03b20       0x38 build/udp_pic32mz_ef_sk/production/_ext/521481140/drv_ethphy.o

.text._ARPAllocateTxPacket
                0x9fc03b58       0x38
 .text._ARPAllocateTxPacket
                0x9fc03b58       0x38 build/udp_pic32mz_ef_sk/production/_ext/1164207549/arp.o

.text.TCPIP_STACK_AddressServiceDefaultSet
                0x9fc03b90       0x38
 .text.TCPIP_STACK_AddressServiceDefaultSet
                0x9fc03b90       0x38 build/udp_pic32mz_ef_sk/production/_ext/1164207549/tcpip_manager.o
                0x9fc03b90                TCPIP_STACK_AddressServiceDefaultSet

.text.TCPIP_PKT_PayloadLen
                0x9fc03bc8       0x38
 .text.TCPIP_PKT_PayloadLen
                0x9fc03bc8       0x38 build/udp_pic32mz_ef_sk/production/_ext/1164207549/tcpip_packet.o
                0x9fc03bc8                TCPIP_PKT_PayloadLen

.text.DATASTREAM_Data_Read
                0x9fc03c00       0x34
 .text.DATASTREAM_Data_Read
                0x9fc03c00       0x34 build/udp_pic32mz_ef_sk/production/_ext/615392287/datastream.o
                0x9fc03c00                DATASTREAM_Data_Read

.text.DATASTREAM_Data_Write
                0x9fc03c34       0x34
 .text.DATASTREAM_Data_Write
                0x9fc03c34       0x34 build/udp_pic32mz_ef_sk/production/_ext/615392287/datastream.o
                0x9fc03c34                DATASTREAM_Data_Write

.text.DRV_ETHPHY_PhyAddressGet
                0x9fc03c68       0x34
 .text.DRV_ETHPHY_PhyAddressGet
                0x9fc03c68       0x34 build/udp_pic32mz_ef_sk/production/_ext/521481140/drv_ethphy.o
                0x9fc03c68                DRV_ETHPHY_PhyAddressGet

.text.DRV_ETHPHY_ClientOperationAbort
                0x9fc03c9c       0x34
 .text.DRV_ETHPHY_ClientOperationAbort
                0x9fc03c9c       0x34 build/udp_pic32mz_ef_sk/production/_ext/521481140/drv_ethphy.o
                0x9fc03c9c                DRV_ETHPHY_ClientOperationAbort

.text._DRV_ETHPHY_LinkStatPhaseIdle
                0x9fc03cd0       0x34
 .text._DRV_ETHPHY_LinkStatPhaseIdle
                0x9fc03cd0       0x34 build/udp_pic32mz_ef_sk/production/_ext/521481140/drv_ethphy.o

.text._DRV_ETHPHY_NegResultPhaseIdle
                0x9fc03d04       0x34
 .text._DRV_ETHPHY_NegResultPhaseIdle
                0x9fc03d04       0x34 build/udp_pic32mz_ef_sk/production/_ext/521481140/drv_ethphy.o

.text._DRV_ETHPHY_NegCompletePhaseIdle
                0x9fc03d38       0x34
 .text._DRV_ETHPHY_NegCompletePhaseIdle
                0x9fc03d38       0x34 build/udp_pic32mz_ef_sk/production/_ext/521481140/drv_ethphy.o

.text._DRV_ETHPHY_NegRestartPhaseIdle
                0x9fc03d6c       0x34
 .text._DRV_ETHPHY_NegRestartPhaseIdle
                0x9fc03d6c       0x34 build/udp_pic32mz_ef_sk/production/_ext/521481140/drv_ethphy.o

.text._UDPSocketDcpt
                0x9fc03da0       0x34
 .text._UDPSocketDcpt
                0x9fc03da0       0x34 build/udp_pic32mz_ef_sk/production/_ext/1164207549/udp.o

.text._UDPUpdatePacketLock
                0x9fc03dd4       0x34
 .text._UDPUpdatePacketLock
                0x9fc03dd4       0x34 build/udp_pic32mz_ef_sk/production/_ext/1164207549/udp.o

.text.TCPIP_STACK_NetAddressBcast
                0x9fc03e08       0x34
 .text.TCPIP_STACK_NetAddressBcast
                0x9fc03e08       0x34 build/udp_pic32mz_ef_sk/production/_ext/1164207549/tcpip_manager.o
                0x9fc03e08                TCPIP_STACK_NetAddressBcast

.text.TCPIP_STACK_NetAddress
                0x9fc03e3c       0x34
 .text.TCPIP_STACK_NetAddress
                0x9fc03e3c       0x34 build/udp_pic32mz_ef_sk/production/_ext/1164207549/tcpip_manager.o
                0x9fc03e3c                TCPIP_STACK_NetAddress

.text._TCPIPStackHandleToNetLinked
                0x9fc03e70       0x34
 .text._TCPIPStackHandleToNetLinked
                0x9fc03e70       0x34 build/udp_pic32mz_ef_sk/production/_ext/1164207549/tcpip_manager.o
                0x9fc03e70                _TCPIPStackHandleToNetLinked

.text.SYS_INT_SourceRestore
                0x9fc03ea4       0x30
 .text.SYS_INT_SourceRestore
                0x9fc03ea4       0x30 build/udp_pic32mz_ef_sk/production/_ext/2145045400/system_interrupt.o
                0x9fc03ea4                SYS_INT_SourceRestore

.text.APP_NVMWordWrite
                0x9fc03ed4       0x30
 .text.APP_NVMWordWrite
                0x9fc03ed4       0x30 build/udp_pic32mz_ef_sk/production/_ext/686445382/nvm.o
                0x9fc03ed4                APP_NVMWordWrite

.text._MacCallocCallback
                0x9fc03f04       0x30
 .text._MacCallocCallback
                0x9fc03f04       0x30 build/udp_pic32mz_ef_sk/production/_ext/1697634946/drv_ethmac.o

.text.DRV_ETHMAC_PIC32MACDeinitialize
                0x9fc03f34       0x30
 .text.DRV_ETHMAC_PIC32MACDeinitialize
                0x9fc03f34       0x30 build/udp_pic32mz_ef_sk/production/_ext/1697634946/drv_ethmac.o
                0x9fc03f34                DRV_ETHMAC_PIC32MACDeinitialize

.text.DRV_ETHMAC_SingleListTailAdd
                0x9fc03f64       0x30
 .text.DRV_ETHMAC_SingleListTailAdd
                0x9fc03f64       0x30 build/udp_pic32mz_ef_sk/production/_ext/1697634946/drv_ethmac_lib.o
                0x9fc03f64                DRV_ETHMAC_SingleListTailAdd

.text.DRV_ETHPHY_VendorDataGet
                0x9fc03f94       0x30
 .text.DRV_ETHPHY_VendorDataGet
                0x9fc03f94       0x30 build/udp_pic32mz_ef_sk/production/_ext/521481140/drv_ethphy.o
                0x9fc03f94                DRV_ETHPHY_VendorDataGet

.text._TCPIP_HEAP_FreeSize
                0x9fc03fc4       0x30
 .text._TCPIP_HEAP_FreeSize
                0x9fc03fc4       0x30 build/udp_pic32mz_ef_sk/production/_ext/1164207549/tcpip_heap_internal.o

.text.TCPIP_OAHASH_EntryRemove
                0x9fc03ff4       0x30
 .text.TCPIP_OAHASH_EntryRemove
                0x9fc03ff4       0x30 build/udp_pic32mz_ef_sk/production/_ext/1164207549/oahash.o
                0x9fc03ff4                TCPIP_OAHASH_EntryRemove

.text.TCPIP_Helper_SingleListTailAdd
                0x9fc04024       0x30
 .text.TCPIP_Helper_SingleListTailAdd
                0x9fc04024       0x30 build/udp_pic32mz_ef_sk/production/_ext/1164207549/tcpip_helpers.o
                0x9fc04024                TCPIP_Helper_SingleListTailAdd

.text.TCPIP_STACK_NetAddressGet
                0x9fc04054       0x30
 .text.TCPIP_STACK_NetAddressGet
                0x9fc04054       0x30 build/udp_pic32mz_ef_sk/production/_ext/1164207549/tcpip_manager.o
                0x9fc04054                TCPIP_STACK_NetAddressGet

.text.TCPIP_STACK_NetMaskGet
                0x9fc04084       0x30
 .text.TCPIP_STACK_NetMaskGet
                0x9fc04084       0x30 build/udp_pic32mz_ef_sk/production/_ext/1164207549/tcpip_manager.o
                0x9fc04084                TCPIP_STACK_NetMaskGet

.text._TCPIPStackModuleRxExtract
                0x9fc040b4       0x30
 .text._TCPIPStackModuleRxExtract
                0x9fc040b4       0x30 build/udp_pic32mz_ef_sk/production/_ext/1164207549/tcpip_manager.o
                0x9fc040b4                _TCPIPStackModuleRxExtract

.text.free      0x9fc040e4       0x30
 .text.free     0x9fc040e4       0x30 c:/program files (x86)/microchip/xc32/v1.42/bin/bin/../../lib/gcc/pic32mx/4.8.3/../../../../pic32mx/lib/fpu64\libc.a(malloc.o)
                0x9fc040e4                free

.text.DATASTREAM_ClientStatus
                0x9fc04114       0x2c
 .text.DATASTREAM_ClientStatus
                0x9fc04114       0x2c build/udp_pic32mz_ef_sk/production/_ext/615392287/datastream_udp.o
                0x9fc04114                DATASTREAM_ClientStatus

.text.DRV_ETHPHY_SMIStatus
                0x9fc04140       0x2c
 .text.DRV_ETHPHY_SMIStatus
                0x9fc04140       0x2c build/udp_pic32mz_ef_sk/production/_ext/521481140/drv_ethphy.o
                0x9fc04140                DRV_ETHPHY_SMIStatus

.text._SYS_TMR_AlarmCallback
                0x9fc0416c       0x2c
 .text._SYS_TMR_AlarmCallback
                0x9fc0416c       0x2c build/udp_pic32mz_ef_sk/production/_ext/2110151058/sys_tmr.o

.text.TCPIP_Notification_Deinitialize
                0x9fc04198       0x2c
 .text.TCPIP_Notification_Deinitialize
                0x9fc04198       0x2c build/udp_pic32mz_ef_sk/production/_ext/1164207549/tcpip_notify.o
                0x9fc04198                TCPIP_Notification_Deinitialize

.text._stub_sbd_memlayout
                0x9fc041c4       0x2c
 .text._stub_sbd_memlayout
                0x9fc041c4       0x2c c:/program files (x86)/microchip/xc32/v1.42/bin/bin/../../lib/gcc/pic32mx/4.8.3/../../../../pic32mx/lib/fpu64\libpic32.a(sbrk.o)
                0x9fc041c4                _sbd_memlayout
                0x9fc041c4                _stub_sbd_memlayout

.text.DRV_ETHPHY_Close
                0x9fc041f0       0x28
 .text.DRV_ETHPHY_Close
                0x9fc041f0       0x28 build/udp_pic32mz_ef_sk/production/_ext/521481140/drv_ethphy.o
                0x9fc041f0                DRV_ETHPHY_Close

.text.SYS_TMR_TickCountGet
                0x9fc04218       0x28
 .text.SYS_TMR_TickCountGet
                0x9fc04218       0x28 build/udp_pic32mz_ef_sk/production/_ext/2110151058/sys_tmr.o
                0x9fc04218                SYS_TMR_TickCountGet

.text._TCPIP_HEAP_Size
                0x9fc04240       0x28
 .text._TCPIP_HEAP_Size
                0x9fc04240       0x28 build/udp_pic32mz_ef_sk/production/_ext/1164207549/tcpip_heap_internal.o

.text._TCPIP_HEAP_LastError
                0x9fc04268       0x28
 .text._TCPIP_HEAP_LastError
                0x9fc04268       0x28 build/udp_pic32mz_ef_sk/production/_ext/1164207549/tcpip_heap_internal.o

.text.TCPIP_STACK_NetMACAddressGet
                0x9fc04290       0x28
 .text.TCPIP_STACK_NetMACAddressGet
                0x9fc04290       0x28 build/udp_pic32mz_ef_sk/production/_ext/1164207549/tcpip_manager.o
                0x9fc04290                TCPIP_STACK_NetMACAddressGet

.text._TCPIPStackSignalHandlerDeregister
                0x9fc042b8       0x28
 .text._TCPIPStackSignalHandlerDeregister
                0x9fc042b8       0x28 build/udp_pic32mz_ef_sk/production/_ext/1164207549/tcpip_manager.o
                0x9fc042b8                _TCPIPStackSignalHandlerDeregister

.text._snprintf_cdnopsuxX
                0x9fc042e0       0x28
 .text._snprintf_cdnopsuxX
                0x9fc042e0       0x28 c:/program files (x86)/microchip/xc32/v1.42/bin/bin/../../lib/gcc/pic32mx/4.8.3/../../../../pic32mx/lib/fpu64\libc.a(snprintf_cdnopsuxX.eo)
                0x9fc042e0                _snprintf_cdnopsuxX

.text.DRV_ETHMAC_PIC32MACClose
                0x9fc04308       0x24
 .text.DRV_ETHMAC_PIC32MACClose
                0x9fc04308       0x24 build/udp_pic32mz_ef_sk/production/_ext/1697634946/drv_ethmac.o
                0x9fc04308                DRV_ETHMAC_PIC32MACClose

.text.SYS_TMR_TickCounterFrequencyGet
                0x9fc0432c       0x24
 .text.SYS_TMR_TickCounterFrequencyGet
                0x9fc0432c       0x24 build/udp_pic32mz_ef_sk/production/_ext/2110151058/sys_tmr.o
                0x9fc0432c                SYS_TMR_TickCounterFrequencyGet

.text._TCPIPSignalEntrySetNotify
                0x9fc04350       0x24
 .text._TCPIPSignalEntrySetNotify
                0x9fc04350       0x24 build/udp_pic32mz_ef_sk/production/_ext/1164207549/tcpip_manager.o

.text.toupper   0x9fc04374       0x24
 .text.toupper  0x9fc04374       0x24 c:/program files (x86)/microchip/xc32/v1.42/bin/bin/../../lib/gcc/pic32mx/4.8.3/../../../../pic32mx/lib/fpu64\libc.a(ctypef.o)
                0x9fc04374                toupper

.text.main      0x9fc04398       0x20
 .text.main     0x9fc04398       0x20 build/udp_pic32mz_ef_sk/production/_ext/1360937237/main.o
                0x9fc04398                main

.text.APP_Initialize
                0x9fc043b8       0x20
 .text.APP_Initialize
                0x9fc043b8       0x20 build/udp_pic32mz_ef_sk/production/_ext/1360937237/app.o
                0x9fc043b8                APP_Initialize

.rodata         0x9fc043d8       0x20
 .rodata        0x9fc043d8       0x20 build/udp_pic32mz_ef_sk/production/_ext/686445382/bootloader.o

.text.DRV_ETHMAC_PIC32MACStatus
                0x9fc043f8       0x20
 .text.DRV_ETHMAC_PIC32MACStatus
                0x9fc043f8       0x20 build/udp_pic32mz_ef_sk/production/_ext/1697634946/drv_ethmac.o
                0x9fc043f8                DRV_ETHMAC_PIC32MACStatus

.text.TCPIP_UDP_ServerOpen
                0x9fc04418       0x20
 .text.TCPIP_UDP_ServerOpen
                0x9fc04418       0x20 build/udp_pic32mz_ef_sk/production/_ext/1164207549/udp.o
                0x9fc04418                TCPIP_UDP_ServerOpen

.text.TCPIP_HEAP_Malloc
                0x9fc04438       0x20
 .text.TCPIP_HEAP_Malloc
                0x9fc04438       0x20 build/udp_pic32mz_ef_sk/production/_ext/1164207549/tcpip_heap_alloc.o
                0x9fc04438                TCPIP_HEAP_Malloc

.text.TCPIP_HEAP_Calloc
                0x9fc04458       0x20
 .text.TCPIP_HEAP_Calloc
                0x9fc04458       0x20 build/udp_pic32mz_ef_sk/production/_ext/1164207549/tcpip_heap_alloc.o
                0x9fc04458                TCPIP_HEAP_Calloc

.text.TCPIP_HEAP_Free
                0x9fc04478       0x20
 .text.TCPIP_HEAP_Free
                0x9fc04478       0x20 build/udp_pic32mz_ef_sk/production/_ext/1164207549/tcpip_heap_alloc.o
                0x9fc04478                TCPIP_HEAP_Free

.text.TCPIP_STACK_Status
                0x9fc04498       0x20
 .text.TCPIP_STACK_Status
                0x9fc04498       0x20 build/udp_pic32mz_ef_sk/production/_ext/1164207549/tcpip_manager.o
                0x9fc04498                TCPIP_STACK_Status

.text.APP_FlashErase
                0x9fc044b8       0x1c
 .text.APP_FlashErase
                0x9fc044b8       0x1c build/udp_pic32mz_ef_sk/production/_ext/686445382/nvm.o
                0x9fc044b8                APP_FlashErase

.text.APP_NVMClearError
                0x9fc044d4       0x1c
 .text.APP_NVMClearError
                0x9fc044d4       0x1c build/udp_pic32mz_ef_sk/production/_ext/686445382/nvm.o
                0x9fc044d4                APP_NVMClearError

.text.DRV_ETHPHY_Deinitialize
                0x9fc044f0       0x1c
 .text.DRV_ETHPHY_Deinitialize
                0x9fc044f0       0x1c build/udp_pic32mz_ef_sk/production/_ext/521481140/drv_ethphy.o
                0x9fc044f0                DRV_ETHPHY_Deinitialize

.text._DRV_ETHPHY_ClientOpSmiScan
                0x9fc0450c       0x1c
 .text._DRV_ETHPHY_ClientOpSmiScan
                0x9fc0450c       0x1c build/udp_pic32mz_ef_sk/production/_ext/521481140/drv_ethphy.o

.text.DRV_ETHPHY_VendorDataSet
                0x9fc04528       0x1c
 .text.DRV_ETHPHY_VendorDataSet
                0x9fc04528       0x1c build/udp_pic32mz_ef_sk/production/_ext/521481140/drv_ethphy.o
                0x9fc04528                DRV_ETHPHY_VendorDataSet

.rodata         0x9fc04544       0x1c
 .rodata        0x9fc04544       0x1c build/udp_pic32mz_ef_sk/production/_ext/941160041/drv_tmr.o

.text.SYS_INT_StatusGetAndDisable
                0x9fc04560       0x1c
 .text.SYS_INT_StatusGetAndDisable
                0x9fc04560       0x1c build/udp_pic32mz_ef_sk/production/_ext/1042686532/sys_int_pic32.o
                0x9fc04560                SYS_INT_StatusGetAndDisable

.text.SYS_INT_StatusRestore
                0x9fc0457c       0x1c
 .text.SYS_INT_StatusRestore
                0x9fc0457c       0x1c build/udp_pic32mz_ef_sk/production/_ext/1042686532/sys_int_pic32.o
                0x9fc0457c                SYS_INT_StatusRestore

.text.SYS_RANDOM_PseudoGet
                0x9fc04598       0x1c
 .text.SYS_RANDOM_PseudoGet
                0x9fc04598       0x1c build/udp_pic32mz_ef_sk/production/_ext/470001640/sys_random.o
                0x9fc04598                SYS_RANDOM_PseudoGet

.text.SYS_TMR_ModuleStatusGet
                0x9fc045b4       0x1c
 .text.SYS_TMR_ModuleStatusGet
                0x9fc045b4       0x1c build/udp_pic32mz_ef_sk/production/_ext/2110151058/sys_tmr.o
                0x9fc045b4                SYS_TMR_ModuleStatusGet

.text.SYS_TMR_CallbackStop
                0x9fc045d0       0x1c
 .text.SYS_TMR_CallbackStop
                0x9fc045d0       0x1c build/udp_pic32mz_ef_sk/production/_ext/2110151058/sys_tmr.o
                0x9fc045d0                SYS_TMR_CallbackStop

.text.SYS_TMR_CallbackPeriodic
                0x9fc045ec       0x1c
 .text.SYS_TMR_CallbackPeriodic
                0x9fc045ec       0x1c build/udp_pic32mz_ef_sk/production/_ext/2110151058/sys_tmr.o
                0x9fc045ec                SYS_TMR_CallbackPeriodic

.text.TCPIP_Helper_ChecksumFold
                0x9fc04608       0x1c
 .text.TCPIP_Helper_ChecksumFold
                0x9fc04608       0x1c build/udp_pic32mz_ef_sk/production/_ext/1164207549/tcpip_helpers.o
                0x9fc04608                TCPIP_Helper_ChecksumFold

.text.TCPIP_Notification_Initialize
                0x9fc04624       0x1c
 .text.TCPIP_Notification_Initialize
                0x9fc04624       0x1c build/udp_pic32mz_ef_sk/production/_ext/1164207549/tcpip_notify.o
                0x9fc04624                TCPIP_Notification_Initialize

.text.srand     0x9fc04640       0x1c
 .text.srand    0x9fc04640       0x1c c:/program files (x86)/microchip/xc32/v1.42/bin/bin/../../lib/gcc/pic32mx/4.8.3/../../../../pic32mx/lib/fpu64\libc.a(rand.o)
                0x9fc04640                srand

.text.SYS_DEVCON_JTAGEnable
                0x9fc0465c       0x18
 .text.SYS_DEVCON_JTAGEnable
                0x9fc0465c       0x18 build/udp_pic32mz_ef_sk/production/_ext/2092611130/sys_devcon.o
                0x9fc0465c                SYS_DEVCON_JTAGEnable

.text.DRV_ETHPHY_Status
                0x9fc04674       0x18
 .text.DRV_ETHPHY_Status
                0x9fc04674       0x18 build/udp_pic32mz_ef_sk/production/_ext/521481140/drv_ethphy.o
                0x9fc04674                DRV_ETHPHY_Status

.text.DRV_ETHPHY_ClientStatus
                0x9fc0468c       0x18
 .text.DRV_ETHPHY_ClientStatus
                0x9fc0468c       0x18 build/udp_pic32mz_ef_sk/production/_ext/521481140/drv_ethphy.o
                0x9fc0468c                DRV_ETHPHY_ClientStatus

.text.DRV_ETHPHY_ClientOperationResult
                0x9fc046a4       0x18
 .text.DRV_ETHPHY_ClientOperationResult
                0x9fc046a4       0x18 build/udp_pic32mz_ef_sk/production/_ext/521481140/drv_ethphy.o
                0x9fc046a4                DRV_ETHPHY_ClientOperationResult

.text.TCPIP_ARP_HashKeyCompare
                0x9fc046bc       0x18
 .text.TCPIP_ARP_HashKeyCompare
                0x9fc046bc       0x18 build/udp_pic32mz_ef_sk/production/_ext/1164207549/arp.o
                0x9fc046bc                TCPIP_ARP_HashKeyCompare

.text.TCPIP_STACK_NetIxGet
                0x9fc046d4       0x18
 .text.TCPIP_STACK_NetIxGet
                0x9fc046d4       0x18 build/udp_pic32mz_ef_sk/production/_ext/1164207549/tcpip_manager.o
                0x9fc046d4                TCPIP_STACK_NetIxGet

.text           0x9fc046ec       0x18
 .text          0x9fc046ec       0x18 c:/program files (x86)/microchip/xc32/v1.42/bin/bin/../../lib/gcc/pic32mx/4.8.3/../../../../pic32mx/lib/fpu64\libpic32.a(default-nmi-handler.o)
                0x9fc046ec                _nmi_handler

.text.SYS_DEVCON_Initialize
                0x9fc04704       0x14
 .text.SYS_DEVCON_Initialize
                0x9fc04704       0x14 build/udp_pic32mz_ef_sk/production/_ext/2092611130/sys_devcon.o
                0x9fc04704                SYS_DEVCON_Initialize

.text.SYS_INT_Initialize
                0x9fc04718       0x14
 .text.SYS_INT_Initialize
                0x9fc04718       0x14 build/udp_pic32mz_ef_sk/production/_ext/1042686532/sys_int_pic32.o
                0x9fc04718                SYS_INT_Initialize

.text.SYS_RESET_ReasonGet
                0x9fc0472c       0x10
 .text.SYS_RESET_ReasonGet
                0x9fc0472c       0x10 build/udp_pic32mz_ef_sk/production/_ext/1532728844/sys_reset.o
                0x9fc0472c                SYS_RESET_ReasonGet

.text.SYS_RESET_ReasonClear
                0x9fc0473c       0x10
 .text.SYS_RESET_ReasonClear
                0x9fc0473c       0x10 build/udp_pic32mz_ef_sk/production/_ext/1532728844/sys_reset.o
                0x9fc0473c                SYS_RESET_ReasonClear

.rodata         0x9fc0474c       0x20
 .rodata        0x9fc0474c       0x10 build/udp_pic32mz_ef_sk/production/_ext/615392287/datastream_udp.o
 .rodata        0x9fc0475c       0x10 build/udp_pic32mz_ef_sk/production/_ext/521481140/drv_extphy_smsc8740.o
                0x9fc0475c                DRV_ETHPHY_OBJECT_SMSC_LAN8740

.text.TCPIP_ARP_HashKeyCopy
                0x9fc0476c       0x10
 .text.TCPIP_ARP_HashKeyCopy
                0x9fc0476c       0x10 build/udp_pic32mz_ef_sk/production/_ext/1164207549/arp.o
                0x9fc0476c                TCPIP_ARP_HashKeyCopy

.text.TCPIP_Helper_SingleListInitialize
                0x9fc0477c       0x10
 .text.TCPIP_Helper_SingleListInitialize
                0x9fc0477c       0x10 build/udp_pic32mz_ef_sk/production/_ext/1164207549/tcpip_helpers.o
                0x9fc0477c                TCPIP_Helper_SingleListInitialize

.text.SYS_CLK_SystemFrequencyGet
                0x9fc0478c        0xc
 .text.SYS_CLK_SystemFrequencyGet
                0x9fc0478c        0xc build/udp_pic32mz_ef_sk/production/_ext/1991045727/sys_clk_pic32mz.o
                0x9fc0478c                SYS_CLK_SystemFrequencyGet

.text.DATASTREAM_BufferEventHandlerSet
                0x9fc04798        0xc
 .text.DATASTREAM_BufferEventHandlerSet
                0x9fc04798        0xc build/udp_pic32mz_ef_sk/production/_ext/615392287/datastream.o
                0x9fc04798                DATASTREAM_BufferEventHandlerSet

.text.BOOTLOADER_ForceBootloadRegister
                0x9fc047a4        0xc
 .text.BOOTLOADER_ForceBootloadRegister
                0x9fc047a4        0xc build/udp_pic32mz_ef_sk/production/_ext/686445382/bootloader.o
                0x9fc047a4                BOOTLOADER_ForceBootloadRegister

.text.DRV_ETHMAC_PIC32MACEventPendingGet
                0x9fc047b0        0xc
 .text.DRV_ETHMAC_PIC32MACEventPendingGet
                0x9fc047b0        0xc build/udp_pic32mz_ef_sk/production/_ext/1697634946/drv_ethmac.o
                0x9fc047b0                DRV_ETHMAC_PIC32MACEventPendingGet

.text._DRV_ETHMAC_GetFrmTxOk
                0x9fc047bc        0xc
 .text._DRV_ETHMAC_GetFrmTxOk
                0x9fc047bc        0xc build/udp_pic32mz_ef_sk/production/_ext/1697634946/drv_ethmac.o

.text._DRV_ETHMAC_GetFrmRxOk
                0x9fc047c8        0xc
 .text._DRV_ETHMAC_GetFrmRxOk
                0x9fc047c8        0xc build/udp_pic32mz_ef_sk/production/_ext/1697634946/drv_ethmac.o

.text._DRV_ETHMAC_GetFrmPktCount
                0x9fc047d4        0xc
 .text._DRV_ETHMAC_GetFrmPktCount
                0x9fc047d4        0xc build/udp_pic32mz_ef_sk/production/_ext/1697634946/drv_ethmac.o

.text._DRV_ETHMAC_GetFrmRxOvflow
                0x9fc047e0        0xc
 .text._DRV_ETHMAC_GetFrmRxOvflow
                0x9fc047e0        0xc build/udp_pic32mz_ef_sk/production/_ext/1697634946/drv_ethmac.o

.text._DRV_ETHMAC_GetFrmFcsError
                0x9fc047ec        0xc
 .text._DRV_ETHMAC_GetFrmFcsError
                0x9fc047ec        0xc build/udp_pic32mz_ef_sk/production/_ext/1697634946/drv_ethmac.o

.text._DRV_ETHMAC_GetAlignError
                0x9fc047f8        0xc
 .text._DRV_ETHMAC_GetAlignError
                0x9fc047f8        0xc build/udp_pic32mz_ef_sk/production/_ext/1697634946/drv_ethmac.o

.text._DRV_ETHMAC_GetSCollisionCount
                0x9fc04804        0xc
 .text._DRV_ETHMAC_GetSCollisionCount
                0x9fc04804        0xc build/udp_pic32mz_ef_sk/production/_ext/1697634946/drv_ethmac.o

.text._DRV_ETHMAC_GetMCollisionCount
                0x9fc04810        0xc
 .text._DRV_ETHMAC_GetMCollisionCount
                0x9fc04810        0xc build/udp_pic32mz_ef_sk/production/_ext/1697634946/drv_ethmac.o

.text.DRV_EXTPHY_SMIClockGet
                0x9fc0481c        0xc
 .text.DRV_EXTPHY_SMIClockGet
                0x9fc0481c        0xc build/udp_pic32mz_ef_sk/production/_ext/521481140/drv_extphy_smsc8740.o

.text.TCPIP_STACK_NumberOfNetworksGet
                0x9fc04828        0xc
 .text.TCPIP_STACK_NumberOfNetworksGet
                0x9fc04828        0xc build/udp_pic32mz_ef_sk/production/_ext/1164207549/tcpip_manager.o
                0x9fc04828                TCPIP_STACK_NumberOfNetworksGet

.text.DRV_ETHMAC_PIC32MACReinitialize
                0x9fc2fef8        0x8
 .text.DRV_ETHMAC_PIC32MACReinitialize
                0x9fc2fef8        0x8 build/udp_pic32mz_ef_sk/production/_ext/1697634946/drv_ethmac.o
                0x9fc2fef8                DRV_ETHMAC_PIC32MACReinitialize

.text.DRV_ETHMAC_PIC32MACPowerMode
                0x9fc04834        0x8
 .text.DRV_ETHMAC_PIC32MACPowerMode
                0x9fc04834        0x8 build/udp_pic32mz_ef_sk/production/_ext/1697634946/drv_ethmac.o
                0x9fc04834                DRV_ETHMAC_PIC32MACPowerMode

.text._DRV_ETHPHY_ClientOpNone
                0x9fc0483c        0x8
 .text._DRV_ETHPHY_ClientOpNone
                0x9fc0483c        0x8 build/udp_pic32mz_ef_sk/production/_ext/521481140/drv_ethphy.o

.text.TCPIP_PKT_Deinitialize
                0x9fc04844        0x8
 .text.TCPIP_PKT_Deinitialize
                0x9fc04844        0x8 build/udp_pic32mz_ef_sk/production/_ext/1164207549/tcpip_packet.o
                0x9fc04844                TCPIP_PKT_Deinitialize

.text._on_reset
                0x9fc0484c        0x8
 .text._on_reset
                0x9fc0484c        0x8 c:/program files (x86)/microchip/xc32/v1.42/bin/bin/../../lib/gcc/pic32mx/4.8.3/../../../../pic32mx/lib/fpu64\libpic32.a(default-on-reset.o)
                0x9fc0484c                _on_reset

.text._on_bootstrap
                0x9fc04854        0x8
 .text._on_bootstrap
                0x9fc04854        0x8 c:/program files (x86)/microchip/xc32/v1.42/bin/bin/../../lib/gcc/pic32mx/4.8.3/../../../../pic32mx/lib/fpu64\libpic32.a(default-on-bootstrap.o)
                0x9fc04854                _on_bootstrap

.rodata         0x9fc2d30c        0x4
 .rodata        0x9fc2d30c        0x4 build/udp_pic32mz_ef_sk/production/_ext/615392287/datastream.o
